
2.elf:     file format elf32-littlearm

Sections:
Idx Name          Size      VMA       LMA       File off  Algn
  0 .isr_vector   00000194  08000000  08000000  00010000  2**0
                  CONTENTS, ALLOC, LOAD, READONLY, DATA
  1 .text         00002c7c  080001a0  080001a0  000101a0  2**4
                  CONTENTS, ALLOC, LOAD, READONLY, CODE
  2 .rodata       00000080  08002e1c  08002e1c  00012e1c  2**0
                  CONTENTS, ALLOC, LOAD, READONLY, DATA
  3 .init_array   00000004  08002e9c  08002e9c  00012e9c  2**2
                  CONTENTS, ALLOC, LOAD, DATA
  4 .fini_array   00000004  08002ea0  08002ea0  00012ea0  2**2
                  CONTENTS, ALLOC, LOAD, DATA
  5 .data         00000068  20000000  08002ea4  00020000  2**2
                  CONTENTS, ALLOC, LOAD, DATA
  6 .ccmram       00000000  10000000  10000000  00020068  2**0
                  CONTENTS
  7 .bss          000000ec  20000068  20000068  00020068  2**2
                  ALLOC
  8 ._user_heap_stack 00000600  20000154  20000154  00020068  2**0
                  ALLOC
  9 .ARM.attributes 00000030  00000000  00000000  00020068  2**0
                  CONTENTS, READONLY
 10 .debug_info   00012d93  00000000  00000000  00020098  2**0
                  CONTENTS, READONLY, DEBUGGING
 11 .debug_abbrev 000022ca  00000000  00000000  00032e2b  2**0
                  CONTENTS, READONLY, DEBUGGING
 12 .debug_loc    000070b7  00000000  00000000  000350f5  2**0
                  CONTENTS, READONLY, DEBUGGING
 13 .debug_aranges 000008c0  00000000  00000000  0003c1b0  2**3
                  CONTENTS, READONLY, DEBUGGING
 14 .debug_ranges 00000c38  00000000  00000000  0003ca70  2**3
                  CONTENTS, READONLY, DEBUGGING
 15 .debug_line   00005275  00000000  00000000  0003d6a8  2**0
                  CONTENTS, READONLY, DEBUGGING
 16 .debug_str    00003b49  00000000  00000000  0004291d  2**0
                  CONTENTS, READONLY, DEBUGGING
 17 .comment      0000007c  00000000  00000000  00046466  2**0
                  CONTENTS, READONLY
 18 .debug_frame  00001e68  00000000  00000000  000464e4  2**2
                  CONTENTS, READONLY, DEBUGGING

Disassembly of section .text:

080001a0 <__do_global_dtors_aux>:
 80001a0:	b510      	push	{r4, lr}
 80001a2:	4c05      	ldr	r4, [pc, #20]	; (80001b8 <__do_global_dtors_aux+0x18>)
 80001a4:	7823      	ldrb	r3, [r4, #0]
 80001a6:	b933      	cbnz	r3, 80001b6 <__do_global_dtors_aux+0x16>
 80001a8:	4b04      	ldr	r3, [pc, #16]	; (80001bc <__do_global_dtors_aux+0x1c>)
 80001aa:	b113      	cbz	r3, 80001b2 <__do_global_dtors_aux+0x12>
 80001ac:	4804      	ldr	r0, [pc, #16]	; (80001c0 <__do_global_dtors_aux+0x20>)
 80001ae:	f3af 8000 	nop.w
 80001b2:	2301      	movs	r3, #1
 80001b4:	7023      	strb	r3, [r4, #0]
 80001b6:	bd10      	pop	{r4, pc}
 80001b8:	20000068 	.word	0x20000068
 80001bc:	00000000 	.word	0x00000000
 80001c0:	08002e04 	.word	0x08002e04

080001c4 <frame_dummy>:
 80001c4:	b508      	push	{r3, lr}
 80001c6:	4b03      	ldr	r3, [pc, #12]	; (80001d4 <frame_dummy+0x10>)
 80001c8:	b11b      	cbz	r3, 80001d2 <frame_dummy+0xe>
 80001ca:	4903      	ldr	r1, [pc, #12]	; (80001d8 <frame_dummy+0x14>)
 80001cc:	4803      	ldr	r0, [pc, #12]	; (80001dc <frame_dummy+0x18>)
 80001ce:	f3af 8000 	nop.w
 80001d2:	bd08      	pop	{r3, pc}
 80001d4:	00000000 	.word	0x00000000
 80001d8:	2000006c 	.word	0x2000006c
 80001dc:	08002e04 	.word	0x08002e04

080001e0 <memchr>:
 80001e0:	f001 01ff 	and.w	r1, r1, #255	; 0xff
 80001e4:	2a10      	cmp	r2, #16
 80001e6:	db2b      	blt.n	8000240 <memchr+0x60>
 80001e8:	f010 0f07 	tst.w	r0, #7
 80001ec:	d008      	beq.n	8000200 <memchr+0x20>
 80001ee:	f810 3b01 	ldrb.w	r3, [r0], #1
 80001f2:	3a01      	subs	r2, #1
 80001f4:	428b      	cmp	r3, r1
 80001f6:	d02d      	beq.n	8000254 <memchr+0x74>
 80001f8:	f010 0f07 	tst.w	r0, #7
 80001fc:	b342      	cbz	r2, 8000250 <memchr+0x70>
 80001fe:	d1f6      	bne.n	80001ee <memchr+0xe>
 8000200:	b4f0      	push	{r4, r5, r6, r7}
 8000202:	ea41 2101 	orr.w	r1, r1, r1, lsl #8
 8000206:	ea41 4101 	orr.w	r1, r1, r1, lsl #16
 800020a:	f022 0407 	bic.w	r4, r2, #7
 800020e:	f07f 0700 	mvns.w	r7, #0
 8000212:	2300      	movs	r3, #0
 8000214:	e8f0 5602 	ldrd	r5, r6, [r0], #8
 8000218:	3c08      	subs	r4, #8
 800021a:	ea85 0501 	eor.w	r5, r5, r1
 800021e:	ea86 0601 	eor.w	r6, r6, r1
 8000222:	fa85 f547 	uadd8	r5, r5, r7
 8000226:	faa3 f587 	sel	r5, r3, r7
 800022a:	fa86 f647 	uadd8	r6, r6, r7
 800022e:	faa5 f687 	sel	r6, r5, r7
 8000232:	b98e      	cbnz	r6, 8000258 <memchr+0x78>
 8000234:	d1ee      	bne.n	8000214 <memchr+0x34>
 8000236:	bcf0      	pop	{r4, r5, r6, r7}
 8000238:	f001 01ff 	and.w	r1, r1, #255	; 0xff
 800023c:	f002 0207 	and.w	r2, r2, #7
 8000240:	b132      	cbz	r2, 8000250 <memchr+0x70>
 8000242:	f810 3b01 	ldrb.w	r3, [r0], #1
 8000246:	3a01      	subs	r2, #1
 8000248:	ea83 0301 	eor.w	r3, r3, r1
 800024c:	b113      	cbz	r3, 8000254 <memchr+0x74>
 800024e:	d1f8      	bne.n	8000242 <memchr+0x62>
 8000250:	2000      	movs	r0, #0
 8000252:	4770      	bx	lr
 8000254:	3801      	subs	r0, #1
 8000256:	4770      	bx	lr
 8000258:	2d00      	cmp	r5, #0
 800025a:	bf06      	itte	eq
 800025c:	4635      	moveq	r5, r6
 800025e:	3803      	subeq	r0, #3
 8000260:	3807      	subne	r0, #7
 8000262:	f015 0f01 	tst.w	r5, #1
 8000266:	d107      	bne.n	8000278 <memchr+0x98>
 8000268:	3001      	adds	r0, #1
 800026a:	f415 7f80 	tst.w	r5, #256	; 0x100
 800026e:	bf02      	ittt	eq
 8000270:	3001      	addeq	r0, #1
 8000272:	f415 3fc0 	tsteq.w	r5, #98304	; 0x18000
 8000276:	3001      	addeq	r0, #1
 8000278:	bcf0      	pop	{r4, r5, r6, r7}
 800027a:	3801      	subs	r0, #1
 800027c:	4770      	bx	lr
 800027e:	bf00      	nop

08000280 <__aeabi_drsub>:
 8000280:	f081 4100 	eor.w	r1, r1, #2147483648	; 0x80000000
 8000284:	e002      	b.n	800028c <__adddf3>
 8000286:	bf00      	nop

08000288 <__aeabi_dsub>:
 8000288:	f083 4300 	eor.w	r3, r3, #2147483648	; 0x80000000

0800028c <__adddf3>:
 800028c:	b530      	push	{r4, r5, lr}
 800028e:	ea4f 0441 	mov.w	r4, r1, lsl #1
 8000292:	ea4f 0543 	mov.w	r5, r3, lsl #1
 8000296:	ea94 0f05 	teq	r4, r5
 800029a:	bf08      	it	eq
 800029c:	ea90 0f02 	teqeq	r0, r2
 80002a0:	bf1f      	itttt	ne
 80002a2:	ea54 0c00 	orrsne.w	ip, r4, r0
 80002a6:	ea55 0c02 	orrsne.w	ip, r5, r2
 80002aa:	ea7f 5c64 	mvnsne.w	ip, r4, asr #21
 80002ae:	ea7f 5c65 	mvnsne.w	ip, r5, asr #21
 80002b2:	f000 80e2 	beq.w	800047a <__adddf3+0x1ee>
 80002b6:	ea4f 5454 	mov.w	r4, r4, lsr #21
 80002ba:	ebd4 5555 	rsbs	r5, r4, r5, lsr #21
 80002be:	bfb8      	it	lt
 80002c0:	426d      	neglt	r5, r5
 80002c2:	dd0c      	ble.n	80002de <__adddf3+0x52>
 80002c4:	442c      	add	r4, r5
 80002c6:	ea80 0202 	eor.w	r2, r0, r2
 80002ca:	ea81 0303 	eor.w	r3, r1, r3
 80002ce:	ea82 0000 	eor.w	r0, r2, r0
 80002d2:	ea83 0101 	eor.w	r1, r3, r1
 80002d6:	ea80 0202 	eor.w	r2, r0, r2
 80002da:	ea81 0303 	eor.w	r3, r1, r3
 80002de:	2d36      	cmp	r5, #54	; 0x36
 80002e0:	bf88      	it	hi
 80002e2:	bd30      	pophi	{r4, r5, pc}
 80002e4:	f011 4f00 	tst.w	r1, #2147483648	; 0x80000000
 80002e8:	ea4f 3101 	mov.w	r1, r1, lsl #12
 80002ec:	f44f 1c80 	mov.w	ip, #1048576	; 0x100000
 80002f0:	ea4c 3111 	orr.w	r1, ip, r1, lsr #12
 80002f4:	d002      	beq.n	80002fc <__adddf3+0x70>
 80002f6:	4240      	negs	r0, r0
 80002f8:	eb61 0141 	sbc.w	r1, r1, r1, lsl #1
 80002fc:	f013 4f00 	tst.w	r3, #2147483648	; 0x80000000
 8000300:	ea4f 3303 	mov.w	r3, r3, lsl #12
 8000304:	ea4c 3313 	orr.w	r3, ip, r3, lsr #12
 8000308:	d002      	beq.n	8000310 <__adddf3+0x84>
 800030a:	4252      	negs	r2, r2
 800030c:	eb63 0343 	sbc.w	r3, r3, r3, lsl #1
 8000310:	ea94 0f05 	teq	r4, r5
 8000314:	f000 80a7 	beq.w	8000466 <__adddf3+0x1da>
 8000318:	f1a4 0401 	sub.w	r4, r4, #1
 800031c:	f1d5 0e20 	rsbs	lr, r5, #32
 8000320:	db0d      	blt.n	800033e <__adddf3+0xb2>
 8000322:	fa02 fc0e 	lsl.w	ip, r2, lr
 8000326:	fa22 f205 	lsr.w	r2, r2, r5
 800032a:	1880      	adds	r0, r0, r2
 800032c:	f141 0100 	adc.w	r1, r1, #0
 8000330:	fa03 f20e 	lsl.w	r2, r3, lr
 8000334:	1880      	adds	r0, r0, r2
 8000336:	fa43 f305 	asr.w	r3, r3, r5
 800033a:	4159      	adcs	r1, r3
 800033c:	e00e      	b.n	800035c <__adddf3+0xd0>
 800033e:	f1a5 0520 	sub.w	r5, r5, #32
 8000342:	f10e 0e20 	add.w	lr, lr, #32
 8000346:	2a01      	cmp	r2, #1
 8000348:	fa03 fc0e 	lsl.w	ip, r3, lr
 800034c:	bf28      	it	cs
 800034e:	f04c 0c02 	orrcs.w	ip, ip, #2
 8000352:	fa43 f305 	asr.w	r3, r3, r5
 8000356:	18c0      	adds	r0, r0, r3
 8000358:	eb51 71e3 	adcs.w	r1, r1, r3, asr #31
 800035c:	f001 4500 	and.w	r5, r1, #2147483648	; 0x80000000
 8000360:	d507      	bpl.n	8000372 <__adddf3+0xe6>
 8000362:	f04f 0e00 	mov.w	lr, #0
 8000366:	f1dc 0c00 	rsbs	ip, ip, #0
 800036a:	eb7e 0000 	sbcs.w	r0, lr, r0
 800036e:	eb6e 0101 	sbc.w	r1, lr, r1
 8000372:	f5b1 1f80 	cmp.w	r1, #1048576	; 0x100000
 8000376:	d31b      	bcc.n	80003b0 <__adddf3+0x124>
 8000378:	f5b1 1f00 	cmp.w	r1, #2097152	; 0x200000
 800037c:	d30c      	bcc.n	8000398 <__adddf3+0x10c>
 800037e:	0849      	lsrs	r1, r1, #1
 8000380:	ea5f 0030 	movs.w	r0, r0, rrx
 8000384:	ea4f 0c3c 	mov.w	ip, ip, rrx
 8000388:	f104 0401 	add.w	r4, r4, #1
 800038c:	ea4f 5244 	mov.w	r2, r4, lsl #21
 8000390:	f512 0f80 	cmn.w	r2, #4194304	; 0x400000
 8000394:	f080 809a 	bcs.w	80004cc <__adddf3+0x240>
 8000398:	f1bc 4f00 	cmp.w	ip, #2147483648	; 0x80000000
 800039c:	bf08      	it	eq
 800039e:	ea5f 0c50 	movseq.w	ip, r0, lsr #1
 80003a2:	f150 0000 	adcs.w	r0, r0, #0
 80003a6:	eb41 5104 	adc.w	r1, r1, r4, lsl #20
 80003aa:	ea41 0105 	orr.w	r1, r1, r5
 80003ae:	bd30      	pop	{r4, r5, pc}
 80003b0:	ea5f 0c4c 	movs.w	ip, ip, lsl #1
 80003b4:	4140      	adcs	r0, r0
 80003b6:	eb41 0101 	adc.w	r1, r1, r1
 80003ba:	f411 1f80 	tst.w	r1, #1048576	; 0x100000
 80003be:	f1a4 0401 	sub.w	r4, r4, #1
 80003c2:	d1e9      	bne.n	8000398 <__adddf3+0x10c>
 80003c4:	f091 0f00 	teq	r1, #0
 80003c8:	bf04      	itt	eq
 80003ca:	4601      	moveq	r1, r0
 80003cc:	2000      	moveq	r0, #0
 80003ce:	fab1 f381 	clz	r3, r1
 80003d2:	bf08      	it	eq
 80003d4:	3320      	addeq	r3, #32
 80003d6:	f1a3 030b 	sub.w	r3, r3, #11
 80003da:	f1b3 0220 	subs.w	r2, r3, #32
 80003de:	da0c      	bge.n	80003fa <__adddf3+0x16e>
 80003e0:	320c      	adds	r2, #12
 80003e2:	dd08      	ble.n	80003f6 <__adddf3+0x16a>
 80003e4:	f102 0c14 	add.w	ip, r2, #20
 80003e8:	f1c2 020c 	rsb	r2, r2, #12
 80003ec:	fa01 f00c 	lsl.w	r0, r1, ip
 80003f0:	fa21 f102 	lsr.w	r1, r1, r2
 80003f4:	e00c      	b.n	8000410 <__adddf3+0x184>
 80003f6:	f102 0214 	add.w	r2, r2, #20
 80003fa:	bfd8      	it	le
 80003fc:	f1c2 0c20 	rsble	ip, r2, #32
 8000400:	fa01 f102 	lsl.w	r1, r1, r2
 8000404:	fa20 fc0c 	lsr.w	ip, r0, ip
 8000408:	bfdc      	itt	le
 800040a:	ea41 010c 	orrle.w	r1, r1, ip
 800040e:	4090      	lslle	r0, r2
 8000410:	1ae4      	subs	r4, r4, r3
 8000412:	bfa2      	ittt	ge
 8000414:	eb01 5104 	addge.w	r1, r1, r4, lsl #20
 8000418:	4329      	orrge	r1, r5
 800041a:	bd30      	popge	{r4, r5, pc}
 800041c:	ea6f 0404 	mvn.w	r4, r4
 8000420:	3c1f      	subs	r4, #31
 8000422:	da1c      	bge.n	800045e <__adddf3+0x1d2>
 8000424:	340c      	adds	r4, #12
 8000426:	dc0e      	bgt.n	8000446 <__adddf3+0x1ba>
 8000428:	f104 0414 	add.w	r4, r4, #20
 800042c:	f1c4 0220 	rsb	r2, r4, #32
 8000430:	fa20 f004 	lsr.w	r0, r0, r4
 8000434:	fa01 f302 	lsl.w	r3, r1, r2
 8000438:	ea40 0003 	orr.w	r0, r0, r3
 800043c:	fa21 f304 	lsr.w	r3, r1, r4
 8000440:	ea45 0103 	orr.w	r1, r5, r3
 8000444:	bd30      	pop	{r4, r5, pc}
 8000446:	f1c4 040c 	rsb	r4, r4, #12
 800044a:	f1c4 0220 	rsb	r2, r4, #32
 800044e:	fa20 f002 	lsr.w	r0, r0, r2
 8000452:	fa01 f304 	lsl.w	r3, r1, r4
 8000456:	ea40 0003 	orr.w	r0, r0, r3
 800045a:	4629      	mov	r1, r5
 800045c:	bd30      	pop	{r4, r5, pc}
 800045e:	fa21 f004 	lsr.w	r0, r1, r4
 8000462:	4629      	mov	r1, r5
 8000464:	bd30      	pop	{r4, r5, pc}
 8000466:	f094 0f00 	teq	r4, #0
 800046a:	f483 1380 	eor.w	r3, r3, #1048576	; 0x100000
 800046e:	bf06      	itte	eq
 8000470:	f481 1180 	eoreq.w	r1, r1, #1048576	; 0x100000
 8000474:	3401      	addeq	r4, #1
 8000476:	3d01      	subne	r5, #1
 8000478:	e74e      	b.n	8000318 <__adddf3+0x8c>
 800047a:	ea7f 5c64 	mvns.w	ip, r4, asr #21
 800047e:	bf18      	it	ne
 8000480:	ea7f 5c65 	mvnsne.w	ip, r5, asr #21
 8000484:	d029      	beq.n	80004da <__adddf3+0x24e>
 8000486:	ea94 0f05 	teq	r4, r5
 800048a:	bf08      	it	eq
 800048c:	ea90 0f02 	teqeq	r0, r2
 8000490:	d005      	beq.n	800049e <__adddf3+0x212>
 8000492:	ea54 0c00 	orrs.w	ip, r4, r0
 8000496:	bf04      	itt	eq
 8000498:	4619      	moveq	r1, r3
 800049a:	4610      	moveq	r0, r2
 800049c:	bd30      	pop	{r4, r5, pc}
 800049e:	ea91 0f03 	teq	r1, r3
 80004a2:	bf1e      	ittt	ne
 80004a4:	2100      	movne	r1, #0
 80004a6:	2000      	movne	r0, #0
 80004a8:	bd30      	popne	{r4, r5, pc}
 80004aa:	ea5f 5c54 	movs.w	ip, r4, lsr #21
 80004ae:	d105      	bne.n	80004bc <__adddf3+0x230>
 80004b0:	0040      	lsls	r0, r0, #1
 80004b2:	4149      	adcs	r1, r1
 80004b4:	bf28      	it	cs
 80004b6:	f041 4100 	orrcs.w	r1, r1, #2147483648	; 0x80000000
 80004ba:	bd30      	pop	{r4, r5, pc}
 80004bc:	f514 0480 	adds.w	r4, r4, #4194304	; 0x400000
 80004c0:	bf3c      	itt	cc
 80004c2:	f501 1180 	addcc.w	r1, r1, #1048576	; 0x100000
 80004c6:	bd30      	popcc	{r4, r5, pc}
 80004c8:	f001 4500 	and.w	r5, r1, #2147483648	; 0x80000000
 80004cc:	f045 41fe 	orr.w	r1, r5, #2130706432	; 0x7f000000
 80004d0:	f441 0170 	orr.w	r1, r1, #15728640	; 0xf00000
 80004d4:	f04f 0000 	mov.w	r0, #0
 80004d8:	bd30      	pop	{r4, r5, pc}
 80004da:	ea7f 5c64 	mvns.w	ip, r4, asr #21
 80004de:	bf1a      	itte	ne
 80004e0:	4619      	movne	r1, r3
 80004e2:	4610      	movne	r0, r2
 80004e4:	ea7f 5c65 	mvnseq.w	ip, r5, asr #21
 80004e8:	bf1c      	itt	ne
 80004ea:	460b      	movne	r3, r1
 80004ec:	4602      	movne	r2, r0
 80004ee:	ea50 3401 	orrs.w	r4, r0, r1, lsl #12
 80004f2:	bf06      	itte	eq
 80004f4:	ea52 3503 	orrseq.w	r5, r2, r3, lsl #12
 80004f8:	ea91 0f03 	teqeq	r1, r3
 80004fc:	f441 2100 	orrne.w	r1, r1, #524288	; 0x80000
 8000500:	bd30      	pop	{r4, r5, pc}
 8000502:	bf00      	nop

08000504 <__aeabi_ui2d>:
 8000504:	f090 0f00 	teq	r0, #0
 8000508:	bf04      	itt	eq
 800050a:	2100      	moveq	r1, #0
 800050c:	4770      	bxeq	lr
 800050e:	b530      	push	{r4, r5, lr}
 8000510:	f44f 6480 	mov.w	r4, #1024	; 0x400
 8000514:	f104 0432 	add.w	r4, r4, #50	; 0x32
 8000518:	f04f 0500 	mov.w	r5, #0
 800051c:	f04f 0100 	mov.w	r1, #0
 8000520:	e750      	b.n	80003c4 <__adddf3+0x138>
 8000522:	bf00      	nop

08000524 <__aeabi_i2d>:
 8000524:	f090 0f00 	teq	r0, #0
 8000528:	bf04      	itt	eq
 800052a:	2100      	moveq	r1, #0
 800052c:	4770      	bxeq	lr
 800052e:	b530      	push	{r4, r5, lr}
 8000530:	f44f 6480 	mov.w	r4, #1024	; 0x400
 8000534:	f104 0432 	add.w	r4, r4, #50	; 0x32
 8000538:	f010 4500 	ands.w	r5, r0, #2147483648	; 0x80000000
 800053c:	bf48      	it	mi
 800053e:	4240      	negmi	r0, r0
 8000540:	f04f 0100 	mov.w	r1, #0
 8000544:	e73e      	b.n	80003c4 <__adddf3+0x138>
 8000546:	bf00      	nop

08000548 <__aeabi_f2d>:
 8000548:	0042      	lsls	r2, r0, #1
 800054a:	ea4f 01e2 	mov.w	r1, r2, asr #3
 800054e:	ea4f 0131 	mov.w	r1, r1, rrx
 8000552:	ea4f 7002 	mov.w	r0, r2, lsl #28
 8000556:	bf1f      	itttt	ne
 8000558:	f012 437f 	andsne.w	r3, r2, #4278190080	; 0xff000000
 800055c:	f093 4f7f 	teqne	r3, #4278190080	; 0xff000000
 8000560:	f081 5160 	eorne.w	r1, r1, #939524096	; 0x38000000
 8000564:	4770      	bxne	lr
 8000566:	f092 0f00 	teq	r2, #0
 800056a:	bf14      	ite	ne
 800056c:	f093 4f7f 	teqne	r3, #4278190080	; 0xff000000
 8000570:	4770      	bxeq	lr
 8000572:	b530      	push	{r4, r5, lr}
 8000574:	f44f 7460 	mov.w	r4, #896	; 0x380
 8000578:	f001 4500 	and.w	r5, r1, #2147483648	; 0x80000000
 800057c:	f021 4100 	bic.w	r1, r1, #2147483648	; 0x80000000
 8000580:	e720      	b.n	80003c4 <__adddf3+0x138>
 8000582:	bf00      	nop

08000584 <__aeabi_ul2d>:
 8000584:	ea50 0201 	orrs.w	r2, r0, r1
 8000588:	bf08      	it	eq
 800058a:	4770      	bxeq	lr
 800058c:	b530      	push	{r4, r5, lr}
 800058e:	f04f 0500 	mov.w	r5, #0
 8000592:	e00a      	b.n	80005aa <__aeabi_l2d+0x16>

08000594 <__aeabi_l2d>:
 8000594:	ea50 0201 	orrs.w	r2, r0, r1
 8000598:	bf08      	it	eq
 800059a:	4770      	bxeq	lr
 800059c:	b530      	push	{r4, r5, lr}
 800059e:	f011 4500 	ands.w	r5, r1, #2147483648	; 0x80000000
 80005a2:	d502      	bpl.n	80005aa <__aeabi_l2d+0x16>
 80005a4:	4240      	negs	r0, r0
 80005a6:	eb61 0141 	sbc.w	r1, r1, r1, lsl #1
 80005aa:	f44f 6480 	mov.w	r4, #1024	; 0x400
 80005ae:	f104 0432 	add.w	r4, r4, #50	; 0x32
 80005b2:	ea5f 5c91 	movs.w	ip, r1, lsr #22
 80005b6:	f43f aedc 	beq.w	8000372 <__adddf3+0xe6>
 80005ba:	f04f 0203 	mov.w	r2, #3
 80005be:	ea5f 0cdc 	movs.w	ip, ip, lsr #3
 80005c2:	bf18      	it	ne
 80005c4:	3203      	addne	r2, #3
 80005c6:	ea5f 0cdc 	movs.w	ip, ip, lsr #3
 80005ca:	bf18      	it	ne
 80005cc:	3203      	addne	r2, #3
 80005ce:	eb02 02dc 	add.w	r2, r2, ip, lsr #3
 80005d2:	f1c2 0320 	rsb	r3, r2, #32
 80005d6:	fa00 fc03 	lsl.w	ip, r0, r3
 80005da:	fa20 f002 	lsr.w	r0, r0, r2
 80005de:	fa01 fe03 	lsl.w	lr, r1, r3
 80005e2:	ea40 000e 	orr.w	r0, r0, lr
 80005e6:	fa21 f102 	lsr.w	r1, r1, r2
 80005ea:	4414      	add	r4, r2
 80005ec:	e6c1      	b.n	8000372 <__adddf3+0xe6>
 80005ee:	bf00      	nop

080005f0 <__aeabi_dmul>:
 80005f0:	b570      	push	{r4, r5, r6, lr}
 80005f2:	f04f 0cff 	mov.w	ip, #255	; 0xff
 80005f6:	f44c 6ce0 	orr.w	ip, ip, #1792	; 0x700
 80005fa:	ea1c 5411 	ands.w	r4, ip, r1, lsr #20
 80005fe:	bf1d      	ittte	ne
 8000600:	ea1c 5513 	andsne.w	r5, ip, r3, lsr #20
 8000604:	ea94 0f0c 	teqne	r4, ip
 8000608:	ea95 0f0c 	teqne	r5, ip
 800060c:	f000 f8de 	bleq	80007cc <__aeabi_dmul+0x1dc>
 8000610:	442c      	add	r4, r5
 8000612:	ea81 0603 	eor.w	r6, r1, r3
 8000616:	ea21 514c 	bic.w	r1, r1, ip, lsl #21
 800061a:	ea23 534c 	bic.w	r3, r3, ip, lsl #21
 800061e:	ea50 3501 	orrs.w	r5, r0, r1, lsl #12
 8000622:	bf18      	it	ne
 8000624:	ea52 3503 	orrsne.w	r5, r2, r3, lsl #12
 8000628:	f441 1180 	orr.w	r1, r1, #1048576	; 0x100000
 800062c:	f443 1380 	orr.w	r3, r3, #1048576	; 0x100000
 8000630:	d038      	beq.n	80006a4 <__aeabi_dmul+0xb4>
 8000632:	fba0 ce02 	umull	ip, lr, r0, r2
 8000636:	f04f 0500 	mov.w	r5, #0
 800063a:	fbe1 e502 	umlal	lr, r5, r1, r2
 800063e:	f006 4200 	and.w	r2, r6, #2147483648	; 0x80000000
 8000642:	fbe0 e503 	umlal	lr, r5, r0, r3
 8000646:	f04f 0600 	mov.w	r6, #0
 800064a:	fbe1 5603 	umlal	r5, r6, r1, r3
 800064e:	f09c 0f00 	teq	ip, #0
 8000652:	bf18      	it	ne
 8000654:	f04e 0e01 	orrne.w	lr, lr, #1
 8000658:	f1a4 04ff 	sub.w	r4, r4, #255	; 0xff
 800065c:	f5b6 7f00 	cmp.w	r6, #512	; 0x200
 8000660:	f564 7440 	sbc.w	r4, r4, #768	; 0x300
 8000664:	d204      	bcs.n	8000670 <__aeabi_dmul+0x80>
 8000666:	ea5f 0e4e 	movs.w	lr, lr, lsl #1
 800066a:	416d      	adcs	r5, r5
 800066c:	eb46 0606 	adc.w	r6, r6, r6
 8000670:	ea42 21c6 	orr.w	r1, r2, r6, lsl #11
 8000674:	ea41 5155 	orr.w	r1, r1, r5, lsr #21
 8000678:	ea4f 20c5 	mov.w	r0, r5, lsl #11
 800067c:	ea40 505e 	orr.w	r0, r0, lr, lsr #21
 8000680:	ea4f 2ece 	mov.w	lr, lr, lsl #11
 8000684:	f1b4 0cfd 	subs.w	ip, r4, #253	; 0xfd
 8000688:	bf88      	it	hi
 800068a:	f5bc 6fe0 	cmphi.w	ip, #1792	; 0x700
 800068e:	d81e      	bhi.n	80006ce <__aeabi_dmul+0xde>
 8000690:	f1be 4f00 	cmp.w	lr, #2147483648	; 0x80000000
 8000694:	bf08      	it	eq
 8000696:	ea5f 0e50 	movseq.w	lr, r0, lsr #1
 800069a:	f150 0000 	adcs.w	r0, r0, #0
 800069e:	eb41 5104 	adc.w	r1, r1, r4, lsl #20
 80006a2:	bd70      	pop	{r4, r5, r6, pc}
 80006a4:	f006 4600 	and.w	r6, r6, #2147483648	; 0x80000000
 80006a8:	ea46 0101 	orr.w	r1, r6, r1
 80006ac:	ea40 0002 	orr.w	r0, r0, r2
 80006b0:	ea81 0103 	eor.w	r1, r1, r3
 80006b4:	ebb4 045c 	subs.w	r4, r4, ip, lsr #1
 80006b8:	bfc2      	ittt	gt
 80006ba:	ebd4 050c 	rsbsgt	r5, r4, ip
 80006be:	ea41 5104 	orrgt.w	r1, r1, r4, lsl #20
 80006c2:	bd70      	popgt	{r4, r5, r6, pc}
 80006c4:	f441 1180 	orr.w	r1, r1, #1048576	; 0x100000
 80006c8:	f04f 0e00 	mov.w	lr, #0
 80006cc:	3c01      	subs	r4, #1
 80006ce:	f300 80ab 	bgt.w	8000828 <__aeabi_dmul+0x238>
 80006d2:	f114 0f36 	cmn.w	r4, #54	; 0x36
 80006d6:	bfde      	ittt	le
 80006d8:	2000      	movle	r0, #0
 80006da:	f001 4100 	andle.w	r1, r1, #2147483648	; 0x80000000
 80006de:	bd70      	pople	{r4, r5, r6, pc}
 80006e0:	f1c4 0400 	rsb	r4, r4, #0
 80006e4:	3c20      	subs	r4, #32
 80006e6:	da35      	bge.n	8000754 <__aeabi_dmul+0x164>
 80006e8:	340c      	adds	r4, #12
 80006ea:	dc1b      	bgt.n	8000724 <__aeabi_dmul+0x134>
 80006ec:	f104 0414 	add.w	r4, r4, #20
 80006f0:	f1c4 0520 	rsb	r5, r4, #32
 80006f4:	fa00 f305 	lsl.w	r3, r0, r5
 80006f8:	fa20 f004 	lsr.w	r0, r0, r4
 80006fc:	fa01 f205 	lsl.w	r2, r1, r5
 8000700:	ea40 0002 	orr.w	r0, r0, r2
 8000704:	f001 4200 	and.w	r2, r1, #2147483648	; 0x80000000
 8000708:	f021 4100 	bic.w	r1, r1, #2147483648	; 0x80000000
 800070c:	eb10 70d3 	adds.w	r0, r0, r3, lsr #31
 8000710:	fa21 f604 	lsr.w	r6, r1, r4
 8000714:	eb42 0106 	adc.w	r1, r2, r6
 8000718:	ea5e 0e43 	orrs.w	lr, lr, r3, lsl #1
 800071c:	bf08      	it	eq
 800071e:	ea20 70d3 	biceq.w	r0, r0, r3, lsr #31
 8000722:	bd70      	pop	{r4, r5, r6, pc}
 8000724:	f1c4 040c 	rsb	r4, r4, #12
 8000728:	f1c4 0520 	rsb	r5, r4, #32
 800072c:	fa00 f304 	lsl.w	r3, r0, r4
 8000730:	fa20 f005 	lsr.w	r0, r0, r5
 8000734:	fa01 f204 	lsl.w	r2, r1, r4
 8000738:	ea40 0002 	orr.w	r0, r0, r2
 800073c:	f001 4100 	and.w	r1, r1, #2147483648	; 0x80000000
 8000740:	eb10 70d3 	adds.w	r0, r0, r3, lsr #31
 8000744:	f141 0100 	adc.w	r1, r1, #0
 8000748:	ea5e 0e43 	orrs.w	lr, lr, r3, lsl #1
 800074c:	bf08      	it	eq
 800074e:	ea20 70d3 	biceq.w	r0, r0, r3, lsr #31
 8000752:	bd70      	pop	{r4, r5, r6, pc}
 8000754:	f1c4 0520 	rsb	r5, r4, #32
 8000758:	fa00 f205 	lsl.w	r2, r0, r5
 800075c:	ea4e 0e02 	orr.w	lr, lr, r2
 8000760:	fa20 f304 	lsr.w	r3, r0, r4
 8000764:	fa01 f205 	lsl.w	r2, r1, r5
 8000768:	ea43 0302 	orr.w	r3, r3, r2
 800076c:	fa21 f004 	lsr.w	r0, r1, r4
 8000770:	f001 4100 	and.w	r1, r1, #2147483648	; 0x80000000
 8000774:	fa21 f204 	lsr.w	r2, r1, r4
 8000778:	ea20 0002 	bic.w	r0, r0, r2
 800077c:	eb00 70d3 	add.w	r0, r0, r3, lsr #31
 8000780:	ea5e 0e43 	orrs.w	lr, lr, r3, lsl #1
 8000784:	bf08      	it	eq
 8000786:	ea20 70d3 	biceq.w	r0, r0, r3, lsr #31
 800078a:	bd70      	pop	{r4, r5, r6, pc}
 800078c:	f094 0f00 	teq	r4, #0
 8000790:	d10f      	bne.n	80007b2 <__aeabi_dmul+0x1c2>
 8000792:	f001 4600 	and.w	r6, r1, #2147483648	; 0x80000000
 8000796:	0040      	lsls	r0, r0, #1
 8000798:	eb41 0101 	adc.w	r1, r1, r1
 800079c:	f411 1f80 	tst.w	r1, #1048576	; 0x100000
 80007a0:	bf08      	it	eq
 80007a2:	3c01      	subeq	r4, #1
 80007a4:	d0f7      	beq.n	8000796 <__aeabi_dmul+0x1a6>
 80007a6:	ea41 0106 	orr.w	r1, r1, r6
 80007aa:	f095 0f00 	teq	r5, #0
 80007ae:	bf18      	it	ne
 80007b0:	4770      	bxne	lr
 80007b2:	f003 4600 	and.w	r6, r3, #2147483648	; 0x80000000
 80007b6:	0052      	lsls	r2, r2, #1
 80007b8:	eb43 0303 	adc.w	r3, r3, r3
 80007bc:	f413 1f80 	tst.w	r3, #1048576	; 0x100000
 80007c0:	bf08      	it	eq
 80007c2:	3d01      	subeq	r5, #1
 80007c4:	d0f7      	beq.n	80007b6 <__aeabi_dmul+0x1c6>
 80007c6:	ea43 0306 	orr.w	r3, r3, r6
 80007ca:	4770      	bx	lr
 80007cc:	ea94 0f0c 	teq	r4, ip
 80007d0:	ea0c 5513 	and.w	r5, ip, r3, lsr #20
 80007d4:	bf18      	it	ne
 80007d6:	ea95 0f0c 	teqne	r5, ip
 80007da:	d00c      	beq.n	80007f6 <__aeabi_dmul+0x206>
 80007dc:	ea50 0641 	orrs.w	r6, r0, r1, lsl #1
 80007e0:	bf18      	it	ne
 80007e2:	ea52 0643 	orrsne.w	r6, r2, r3, lsl #1
 80007e6:	d1d1      	bne.n	800078c <__aeabi_dmul+0x19c>
 80007e8:	ea81 0103 	eor.w	r1, r1, r3
 80007ec:	f001 4100 	and.w	r1, r1, #2147483648	; 0x80000000
 80007f0:	f04f 0000 	mov.w	r0, #0
 80007f4:	bd70      	pop	{r4, r5, r6, pc}
 80007f6:	ea50 0641 	orrs.w	r6, r0, r1, lsl #1
 80007fa:	bf06      	itte	eq
 80007fc:	4610      	moveq	r0, r2
 80007fe:	4619      	moveq	r1, r3
 8000800:	ea52 0643 	orrsne.w	r6, r2, r3, lsl #1
 8000804:	d019      	beq.n	800083a <__aeabi_dmul+0x24a>
 8000806:	ea94 0f0c 	teq	r4, ip
 800080a:	d102      	bne.n	8000812 <__aeabi_dmul+0x222>
 800080c:	ea50 3601 	orrs.w	r6, r0, r1, lsl #12
 8000810:	d113      	bne.n	800083a <__aeabi_dmul+0x24a>
 8000812:	ea95 0f0c 	teq	r5, ip
 8000816:	d105      	bne.n	8000824 <__aeabi_dmul+0x234>
 8000818:	ea52 3603 	orrs.w	r6, r2, r3, lsl #12
 800081c:	bf1c      	itt	ne
 800081e:	4610      	movne	r0, r2
 8000820:	4619      	movne	r1, r3
 8000822:	d10a      	bne.n	800083a <__aeabi_dmul+0x24a>
 8000824:	ea81 0103 	eor.w	r1, r1, r3
 8000828:	f001 4100 	and.w	r1, r1, #2147483648	; 0x80000000
 800082c:	f041 41fe 	orr.w	r1, r1, #2130706432	; 0x7f000000
 8000830:	f441 0170 	orr.w	r1, r1, #15728640	; 0xf00000
 8000834:	f04f 0000 	mov.w	r0, #0
 8000838:	bd70      	pop	{r4, r5, r6, pc}
 800083a:	f041 41fe 	orr.w	r1, r1, #2130706432	; 0x7f000000
 800083e:	f441 0178 	orr.w	r1, r1, #16252928	; 0xf80000
 8000842:	bd70      	pop	{r4, r5, r6, pc}

08000844 <__aeabi_ddiv>:
 8000844:	b570      	push	{r4, r5, r6, lr}
 8000846:	f04f 0cff 	mov.w	ip, #255	; 0xff
 800084a:	f44c 6ce0 	orr.w	ip, ip, #1792	; 0x700
 800084e:	ea1c 5411 	ands.w	r4, ip, r1, lsr #20
 8000852:	bf1d      	ittte	ne
 8000854:	ea1c 5513 	andsne.w	r5, ip, r3, lsr #20
 8000858:	ea94 0f0c 	teqne	r4, ip
 800085c:	ea95 0f0c 	teqne	r5, ip
 8000860:	f000 f8a7 	bleq	80009b2 <__aeabi_ddiv+0x16e>
 8000864:	eba4 0405 	sub.w	r4, r4, r5
 8000868:	ea81 0e03 	eor.w	lr, r1, r3
 800086c:	ea52 3503 	orrs.w	r5, r2, r3, lsl #12
 8000870:	ea4f 3101 	mov.w	r1, r1, lsl #12
 8000874:	f000 8088 	beq.w	8000988 <__aeabi_ddiv+0x144>
 8000878:	ea4f 3303 	mov.w	r3, r3, lsl #12
 800087c:	f04f 5580 	mov.w	r5, #268435456	; 0x10000000
 8000880:	ea45 1313 	orr.w	r3, r5, r3, lsr #4
 8000884:	ea43 6312 	orr.w	r3, r3, r2, lsr #24
 8000888:	ea4f 2202 	mov.w	r2, r2, lsl #8
 800088c:	ea45 1511 	orr.w	r5, r5, r1, lsr #4
 8000890:	ea45 6510 	orr.w	r5, r5, r0, lsr #24
 8000894:	ea4f 2600 	mov.w	r6, r0, lsl #8
 8000898:	f00e 4100 	and.w	r1, lr, #2147483648	; 0x80000000
 800089c:	429d      	cmp	r5, r3
 800089e:	bf08      	it	eq
 80008a0:	4296      	cmpeq	r6, r2
 80008a2:	f144 04fd 	adc.w	r4, r4, #253	; 0xfd
 80008a6:	f504 7440 	add.w	r4, r4, #768	; 0x300
 80008aa:	d202      	bcs.n	80008b2 <__aeabi_ddiv+0x6e>
 80008ac:	085b      	lsrs	r3, r3, #1
 80008ae:	ea4f 0232 	mov.w	r2, r2, rrx
 80008b2:	1ab6      	subs	r6, r6, r2
 80008b4:	eb65 0503 	sbc.w	r5, r5, r3
 80008b8:	085b      	lsrs	r3, r3, #1
 80008ba:	ea4f 0232 	mov.w	r2, r2, rrx
 80008be:	f44f 1080 	mov.w	r0, #1048576	; 0x100000
 80008c2:	f44f 2c00 	mov.w	ip, #524288	; 0x80000
 80008c6:	ebb6 0e02 	subs.w	lr, r6, r2
 80008ca:	eb75 0e03 	sbcs.w	lr, r5, r3
 80008ce:	bf22      	ittt	cs
 80008d0:	1ab6      	subcs	r6, r6, r2
 80008d2:	4675      	movcs	r5, lr
 80008d4:	ea40 000c 	orrcs.w	r0, r0, ip
 80008d8:	085b      	lsrs	r3, r3, #1
 80008da:	ea4f 0232 	mov.w	r2, r2, rrx
 80008de:	ebb6 0e02 	subs.w	lr, r6, r2
 80008e2:	eb75 0e03 	sbcs.w	lr, r5, r3
 80008e6:	bf22      	ittt	cs
 80008e8:	1ab6      	subcs	r6, r6, r2
 80008ea:	4675      	movcs	r5, lr
 80008ec:	ea40 005c 	orrcs.w	r0, r0, ip, lsr #1
 80008f0:	085b      	lsrs	r3, r3, #1
 80008f2:	ea4f 0232 	mov.w	r2, r2, rrx
 80008f6:	ebb6 0e02 	subs.w	lr, r6, r2
 80008fa:	eb75 0e03 	sbcs.w	lr, r5, r3
 80008fe:	bf22      	ittt	cs
 8000900:	1ab6      	subcs	r6, r6, r2
 8000902:	4675      	movcs	r5, lr
 8000904:	ea40 009c 	orrcs.w	r0, r0, ip, lsr #2
 8000908:	085b      	lsrs	r3, r3, #1
 800090a:	ea4f 0232 	mov.w	r2, r2, rrx
 800090e:	ebb6 0e02 	subs.w	lr, r6, r2
 8000912:	eb75 0e03 	sbcs.w	lr, r5, r3
 8000916:	bf22      	ittt	cs
 8000918:	1ab6      	subcs	r6, r6, r2
 800091a:	4675      	movcs	r5, lr
 800091c:	ea40 00dc 	orrcs.w	r0, r0, ip, lsr #3
 8000920:	ea55 0e06 	orrs.w	lr, r5, r6
 8000924:	d018      	beq.n	8000958 <__aeabi_ddiv+0x114>
 8000926:	ea4f 1505 	mov.w	r5, r5, lsl #4
 800092a:	ea45 7516 	orr.w	r5, r5, r6, lsr #28
 800092e:	ea4f 1606 	mov.w	r6, r6, lsl #4
 8000932:	ea4f 03c3 	mov.w	r3, r3, lsl #3
 8000936:	ea43 7352 	orr.w	r3, r3, r2, lsr #29
 800093a:	ea4f 02c2 	mov.w	r2, r2, lsl #3
 800093e:	ea5f 1c1c 	movs.w	ip, ip, lsr #4
 8000942:	d1c0      	bne.n	80008c6 <__aeabi_ddiv+0x82>
 8000944:	f411 1f80 	tst.w	r1, #1048576	; 0x100000
 8000948:	d10b      	bne.n	8000962 <__aeabi_ddiv+0x11e>
 800094a:	ea41 0100 	orr.w	r1, r1, r0
 800094e:	f04f 0000 	mov.w	r0, #0
 8000952:	f04f 4c00 	mov.w	ip, #2147483648	; 0x80000000
 8000956:	e7b6      	b.n	80008c6 <__aeabi_ddiv+0x82>
 8000958:	f411 1f80 	tst.w	r1, #1048576	; 0x100000
 800095c:	bf04      	itt	eq
 800095e:	4301      	orreq	r1, r0
 8000960:	2000      	moveq	r0, #0
 8000962:	f1b4 0cfd 	subs.w	ip, r4, #253	; 0xfd
 8000966:	bf88      	it	hi
 8000968:	f5bc 6fe0 	cmphi.w	ip, #1792	; 0x700
 800096c:	f63f aeaf 	bhi.w	80006ce <__aeabi_dmul+0xde>
 8000970:	ebb5 0c03 	subs.w	ip, r5, r3
 8000974:	bf04      	itt	eq
 8000976:	ebb6 0c02 	subseq.w	ip, r6, r2
 800097a:	ea5f 0c50 	movseq.w	ip, r0, lsr #1
 800097e:	f150 0000 	adcs.w	r0, r0, #0
 8000982:	eb41 5104 	adc.w	r1, r1, r4, lsl #20
 8000986:	bd70      	pop	{r4, r5, r6, pc}
 8000988:	f00e 4e00 	and.w	lr, lr, #2147483648	; 0x80000000
 800098c:	ea4e 3111 	orr.w	r1, lr, r1, lsr #12
 8000990:	eb14 045c 	adds.w	r4, r4, ip, lsr #1
 8000994:	bfc2      	ittt	gt
 8000996:	ebd4 050c 	rsbsgt	r5, r4, ip
 800099a:	ea41 5104 	orrgt.w	r1, r1, r4, lsl #20
 800099e:	bd70      	popgt	{r4, r5, r6, pc}
 80009a0:	f441 1180 	orr.w	r1, r1, #1048576	; 0x100000
 80009a4:	f04f 0e00 	mov.w	lr, #0
 80009a8:	3c01      	subs	r4, #1
 80009aa:	e690      	b.n	80006ce <__aeabi_dmul+0xde>
 80009ac:	ea45 0e06 	orr.w	lr, r5, r6
 80009b0:	e68d      	b.n	80006ce <__aeabi_dmul+0xde>
 80009b2:	ea0c 5513 	and.w	r5, ip, r3, lsr #20
 80009b6:	ea94 0f0c 	teq	r4, ip
 80009ba:	bf08      	it	eq
 80009bc:	ea95 0f0c 	teqeq	r5, ip
 80009c0:	f43f af3b 	beq.w	800083a <__aeabi_dmul+0x24a>
 80009c4:	ea94 0f0c 	teq	r4, ip
 80009c8:	d10a      	bne.n	80009e0 <__aeabi_ddiv+0x19c>
 80009ca:	ea50 3401 	orrs.w	r4, r0, r1, lsl #12
 80009ce:	f47f af34 	bne.w	800083a <__aeabi_dmul+0x24a>
 80009d2:	ea95 0f0c 	teq	r5, ip
 80009d6:	f47f af25 	bne.w	8000824 <__aeabi_dmul+0x234>
 80009da:	4610      	mov	r0, r2
 80009dc:	4619      	mov	r1, r3
 80009de:	e72c      	b.n	800083a <__aeabi_dmul+0x24a>
 80009e0:	ea95 0f0c 	teq	r5, ip
 80009e4:	d106      	bne.n	80009f4 <__aeabi_ddiv+0x1b0>
 80009e6:	ea52 3503 	orrs.w	r5, r2, r3, lsl #12
 80009ea:	f43f aefd 	beq.w	80007e8 <__aeabi_dmul+0x1f8>
 80009ee:	4610      	mov	r0, r2
 80009f0:	4619      	mov	r1, r3
 80009f2:	e722      	b.n	800083a <__aeabi_dmul+0x24a>
 80009f4:	ea50 0641 	orrs.w	r6, r0, r1, lsl #1
 80009f8:	bf18      	it	ne
 80009fa:	ea52 0643 	orrsne.w	r6, r2, r3, lsl #1
 80009fe:	f47f aec5 	bne.w	800078c <__aeabi_dmul+0x19c>
 8000a02:	ea50 0441 	orrs.w	r4, r0, r1, lsl #1
 8000a06:	f47f af0d 	bne.w	8000824 <__aeabi_dmul+0x234>
 8000a0a:	ea52 0543 	orrs.w	r5, r2, r3, lsl #1
 8000a0e:	f47f aeeb 	bne.w	80007e8 <__aeabi_dmul+0x1f8>
 8000a12:	e712      	b.n	800083a <__aeabi_dmul+0x24a>

08000a14 <__aeabi_d2iz>:
 8000a14:	ea4f 0241 	mov.w	r2, r1, lsl #1
 8000a18:	f512 1200 	adds.w	r2, r2, #2097152	; 0x200000
 8000a1c:	d215      	bcs.n	8000a4a <__aeabi_d2iz+0x36>
 8000a1e:	d511      	bpl.n	8000a44 <__aeabi_d2iz+0x30>
 8000a20:	f46f 7378 	mvn.w	r3, #992	; 0x3e0
 8000a24:	ebb3 5262 	subs.w	r2, r3, r2, asr #21
 8000a28:	d912      	bls.n	8000a50 <__aeabi_d2iz+0x3c>
 8000a2a:	ea4f 23c1 	mov.w	r3, r1, lsl #11
 8000a2e:	f043 4300 	orr.w	r3, r3, #2147483648	; 0x80000000
 8000a32:	ea43 5350 	orr.w	r3, r3, r0, lsr #21
 8000a36:	f011 4f00 	tst.w	r1, #2147483648	; 0x80000000
 8000a3a:	fa23 f002 	lsr.w	r0, r3, r2
 8000a3e:	bf18      	it	ne
 8000a40:	4240      	negne	r0, r0
 8000a42:	4770      	bx	lr
 8000a44:	f04f 0000 	mov.w	r0, #0
 8000a48:	4770      	bx	lr
 8000a4a:	ea50 3001 	orrs.w	r0, r0, r1, lsl #12
 8000a4e:	d105      	bne.n	8000a5c <__aeabi_d2iz+0x48>
 8000a50:	f011 4000 	ands.w	r0, r1, #2147483648	; 0x80000000
 8000a54:	bf08      	it	eq
 8000a56:	f06f 4000 	mvneq.w	r0, #2147483648	; 0x80000000
 8000a5a:	4770      	bx	lr
 8000a5c:	f04f 0000 	mov.w	r0, #0
 8000a60:	4770      	bx	lr
 8000a62:	bf00      	nop

08000a64 <HAL_InitTick>:
  *         implementation  in user file.
  * @param TickPriority Tick interrupt priority.
  * @retval HAL status
  */
__weak HAL_StatusTypeDef HAL_InitTick(uint32_t TickPriority)
{
 8000a64:	b510      	push	{r4, lr}
  /*Configure the SysTick to have interrupt in 1ms time basis*/
  HAL_SYSTICK_Config(SystemCoreClock / 1000U);
 8000a66:	4b08      	ldr	r3, [pc, #32]	; (8000a88 <HAL_InitTick+0x24>)
{
 8000a68:	4604      	mov	r4, r0
  HAL_SYSTICK_Config(SystemCoreClock / 1000U);
 8000a6a:	6818      	ldr	r0, [r3, #0]
 8000a6c:	f44f 737a 	mov.w	r3, #1000	; 0x3e8
 8000a70:	fbb0 f0f3 	udiv	r0, r0, r3
 8000a74:	f000 f88c 	bl	8000b90 <HAL_SYSTICK_Config>
 
  /*Configure the SysTick IRQ priority */
  HAL_NVIC_SetPriority(SysTick_IRQn, TickPriority ,0U);
 8000a78:	2200      	movs	r2, #0
 8000a7a:	4621      	mov	r1, r4
 8000a7c:	f04f 30ff 	mov.w	r0, #4294967295
 8000a80:	f000 f846 	bl	8000b10 <HAL_NVIC_SetPriority>

   /* Return function status */
  return HAL_OK;
}
 8000a84:	2000      	movs	r0, #0
 8000a86:	bd10      	pop	{r4, pc}
 8000a88:	20000000 	.word	0x20000000

08000a8c <HAL_Init>:
  __HAL_FLASH_PREFETCH_BUFFER_ENABLE();
 8000a8c:	4a07      	ldr	r2, [pc, #28]	; (8000aac <HAL_Init+0x20>)
{
 8000a8e:	b508      	push	{r3, lr}
  __HAL_FLASH_PREFETCH_BUFFER_ENABLE();
 8000a90:	6813      	ldr	r3, [r2, #0]
 8000a92:	f043 0310 	orr.w	r3, r3, #16
 8000a96:	6013      	str	r3, [r2, #0]
  HAL_NVIC_SetPriorityGrouping(NVIC_PRIORITYGROUP_4);
 8000a98:	2003      	movs	r0, #3
 8000a9a:	f000 f827 	bl	8000aec <HAL_NVIC_SetPriorityGrouping>
  HAL_InitTick(TICK_INT_PRIORITY);
 8000a9e:	2000      	movs	r0, #0
 8000aa0:	f7ff ffe0 	bl	8000a64 <HAL_InitTick>
  HAL_MspInit();
 8000aa4:	f001 fc58 	bl	8002358 <HAL_MspInit>
}
 8000aa8:	2000      	movs	r0, #0
 8000aaa:	bd08      	pop	{r3, pc}
 8000aac:	40022000 	.word	0x40022000

08000ab0 <HAL_IncTick>:
  *         implementations  in user file.
  * @retval None
  */
__weak void HAL_IncTick(void)
{
  uwTick++;
 8000ab0:	4a02      	ldr	r2, [pc, #8]	; (8000abc <HAL_IncTick+0xc>)
 8000ab2:	6813      	ldr	r3, [r2, #0]
 8000ab4:	3301      	adds	r3, #1
 8000ab6:	6013      	str	r3, [r2, #0]
 8000ab8:	4770      	bx	lr
 8000aba:	bf00      	nop
 8000abc:	2000009c 	.word	0x2000009c

08000ac0 <HAL_GetTick>:
  *         implementations  in user file.
  * @retval tick value
  */
__weak uint32_t HAL_GetTick(void)
{
  return uwTick;  
 8000ac0:	4b01      	ldr	r3, [pc, #4]	; (8000ac8 <HAL_GetTick+0x8>)
 8000ac2:	6818      	ldr	r0, [r3, #0]
}
 8000ac4:	4770      	bx	lr
 8000ac6:	bf00      	nop
 8000ac8:	2000009c 	.word	0x2000009c

08000acc <HAL_Delay>:
  *         implementations  in user file.
  * @param  Delay specifies the delay time length, in milliseconds.
  * @retval None
  */
__weak void HAL_Delay(__IO uint32_t Delay)
{
 8000acc:	b537      	push	{r0, r1, r2, r4, r5, lr}
 8000ace:	9001      	str	r0, [sp, #4]
  uint32_t tickstart = HAL_GetTick();
 8000ad0:	f7ff fff6 	bl	8000ac0 <HAL_GetTick>
  uint32_t wait = Delay;
 8000ad4:	9c01      	ldr	r4, [sp, #4]
  
  /* Add a period to guarantee minimum wait */
  if (wait < HAL_MAX_DELAY)
 8000ad6:	1c63      	adds	r3, r4, #1
  uint32_t tickstart = HAL_GetTick();
 8000ad8:	4605      	mov	r5, r0
  {
     wait++;
 8000ada:	bf18      	it	ne
 8000adc:	3401      	addne	r4, #1
  }
  
  while((HAL_GetTick() - tickstart) < wait)
 8000ade:	f7ff ffef 	bl	8000ac0 <HAL_GetTick>
 8000ae2:	1b40      	subs	r0, r0, r5
 8000ae4:	42a0      	cmp	r0, r4
 8000ae6:	d3fa      	bcc.n	8000ade <HAL_Delay+0x12>
  {
  }
}
 8000ae8:	b003      	add	sp, #12
 8000aea:	bd30      	pop	{r4, r5, pc}

08000aec <HAL_NVIC_SetPriorityGrouping>:
__STATIC_INLINE void NVIC_SetPriorityGrouping(uint32_t PriorityGroup)
{
  uint32_t reg_value;
  uint32_t PriorityGroupTmp = (PriorityGroup & (uint32_t)0x07UL);             /* only values 0..7 are used          */

  reg_value  =  SCB->AIRCR;                                                   /* read old register configuration    */
 8000aec:	4a07      	ldr	r2, [pc, #28]	; (8000b0c <HAL_NVIC_SetPriorityGrouping+0x20>)
 8000aee:	68d3      	ldr	r3, [r2, #12]
  reg_value &= ~((uint32_t)(SCB_AIRCR_VECTKEY_Msk | SCB_AIRCR_PRIGROUP_Msk)); /* clear bits to change               */
 8000af0:	f423 63e0 	bic.w	r3, r3, #1792	; 0x700
 8000af4:	041b      	lsls	r3, r3, #16
 8000af6:	0c1b      	lsrs	r3, r3, #16
 8000af8:	f043 63bf 	orr.w	r3, r3, #100139008	; 0x5f80000
  reg_value  =  (reg_value                                   |
                ((uint32_t)0x5FAUL << SCB_AIRCR_VECTKEY_Pos) |
                (PriorityGroupTmp << 8U)                      );              /* Insert write key and priorty group */
 8000afc:	0200      	lsls	r0, r0, #8
 8000afe:	f443 3300 	orr.w	r3, r3, #131072	; 0x20000
 8000b02:	f400 60e0 	and.w	r0, r0, #1792	; 0x700
  reg_value  =  (reg_value                                   |
 8000b06:	4303      	orrs	r3, r0
  SCB->AIRCR =  reg_value;
 8000b08:	60d3      	str	r3, [r2, #12]
 8000b0a:	4770      	bx	lr
 8000b0c:	e000ed00 	.word	0xe000ed00

08000b10 <HAL_NVIC_SetPriority>:
  \details Reads the priority grouping field from the NVIC Interrupt Controller.
  \return                Priority grouping field (SCB->AIRCR [10:8] PRIGROUP field).
 */
__STATIC_INLINE uint32_t NVIC_GetPriorityGrouping(void)
{
  return ((uint32_t)((SCB->AIRCR & SCB_AIRCR_PRIGROUP_Msk) >> SCB_AIRCR_PRIGROUP_Pos));
 8000b10:	4b17      	ldr	r3, [pc, #92]	; (8000b70 <HAL_NVIC_SetPriority+0x60>)
  *         This parameter can be a value between 0 and 15 as described in the table CORTEX_NVIC_Priority_Table
  *         A lower priority value indicates a higher priority.
  * @retval None
  */
void HAL_NVIC_SetPriority(IRQn_Type IRQn, uint32_t PreemptPriority, uint32_t SubPriority)
{
 8000b12:	b530      	push	{r4, r5, lr}
 8000b14:	68dc      	ldr	r4, [r3, #12]
 8000b16:	f3c4 2402 	ubfx	r4, r4, #8, #3
{
  uint32_t PriorityGroupTmp = (PriorityGroup & (uint32_t)0x07UL);   /* only values 0..7 are used          */
  uint32_t PreemptPriorityBits;
  uint32_t SubPriorityBits;

  PreemptPriorityBits = ((7UL - PriorityGroupTmp) > (uint32_t)(__NVIC_PRIO_BITS)) ? (uint32_t)(__NVIC_PRIO_BITS) : (uint32_t)(7UL - PriorityGroupTmp);
 8000b1a:	f1c4 0307 	rsb	r3, r4, #7
  SubPriorityBits     = ((PriorityGroupTmp + (uint32_t)(__NVIC_PRIO_BITS)) < (uint32_t)7UL) ? (uint32_t)0UL : (uint32_t)((PriorityGroupTmp - 7UL) + (uint32_t)(__NVIC_PRIO_BITS));
 8000b1e:	1d25      	adds	r5, r4, #4
  PreemptPriorityBits = ((7UL - PriorityGroupTmp) > (uint32_t)(__NVIC_PRIO_BITS)) ? (uint32_t)(__NVIC_PRIO_BITS) : (uint32_t)(7UL - PriorityGroupTmp);
 8000b20:	2b04      	cmp	r3, #4
 8000b22:	bf28      	it	cs
 8000b24:	2304      	movcs	r3, #4
  SubPriorityBits     = ((PriorityGroupTmp + (uint32_t)(__NVIC_PRIO_BITS)) < (uint32_t)7UL) ? (uint32_t)0UL : (uint32_t)((PriorityGroupTmp - 7UL) + (uint32_t)(__NVIC_PRIO_BITS));
 8000b26:	2d06      	cmp	r5, #6

  return (
           ((PreemptPriority & (uint32_t)((1UL << (PreemptPriorityBits)) - 1UL)) << SubPriorityBits) |
 8000b28:	f04f 0501 	mov.w	r5, #1
 8000b2c:	fa05 f303 	lsl.w	r3, r5, r3
 8000b30:	f103 33ff 	add.w	r3, r3, #4294967295
  SubPriorityBits     = ((PriorityGroupTmp + (uint32_t)(__NVIC_PRIO_BITS)) < (uint32_t)7UL) ? (uint32_t)0UL : (uint32_t)((PriorityGroupTmp - 7UL) + (uint32_t)(__NVIC_PRIO_BITS));
 8000b34:	bf8c      	ite	hi
 8000b36:	3c03      	subhi	r4, #3
 8000b38:	2400      	movls	r4, #0
           ((PreemptPriority & (uint32_t)((1UL << (PreemptPriorityBits)) - 1UL)) << SubPriorityBits) |
 8000b3a:	4019      	ands	r1, r3
 8000b3c:	40a1      	lsls	r1, r4
           ((SubPriority     & (uint32_t)((1UL << (SubPriorityBits    )) - 1UL)))
 8000b3e:	fa05 f404 	lsl.w	r4, r5, r4
 8000b42:	3c01      	subs	r4, #1
 8000b44:	4022      	ands	r2, r4
  if ((int32_t)(IRQn) < 0)
 8000b46:	2800      	cmp	r0, #0
           ((PreemptPriority & (uint32_t)((1UL << (PreemptPriorityBits)) - 1UL)) << SubPriorityBits) |
 8000b48:	ea42 0201 	orr.w	r2, r2, r1
 8000b4c:	ea4f 1202 	mov.w	r2, r2, lsl #4
    NVIC->IP[((uint32_t)(int32_t)IRQn)]               = (uint8_t)((priority << (8U - __NVIC_PRIO_BITS)) & (uint32_t)0xFFUL);
 8000b50:	bfaf      	iteee	ge
 8000b52:	f100 4060 	addge.w	r0, r0, #3758096384	; 0xe0000000
    SCB->SHP[(((uint32_t)(int32_t)IRQn) & 0xFUL)-4UL] = (uint8_t)((priority << (8U - __NVIC_PRIO_BITS)) & (uint32_t)0xFFUL);
 8000b56:	f000 000f 	andlt.w	r0, r0, #15
 8000b5a:	4b06      	ldrlt	r3, [pc, #24]	; (8000b74 <HAL_NVIC_SetPriority+0x64>)
 8000b5c:	b2d2      	uxtblt	r2, r2
    NVIC->IP[((uint32_t)(int32_t)IRQn)]               = (uint8_t)((priority << (8U - __NVIC_PRIO_BITS)) & (uint32_t)0xFFUL);
 8000b5e:	bfa5      	ittet	ge
 8000b60:	f500 4061 	addge.w	r0, r0, #57600	; 0xe100
 8000b64:	b2d2      	uxtbge	r2, r2
    SCB->SHP[(((uint32_t)(int32_t)IRQn) & 0xFUL)-4UL] = (uint8_t)((priority << (8U - __NVIC_PRIO_BITS)) & (uint32_t)0xFFUL);
 8000b66:	541a      	strblt	r2, [r3, r0]
    NVIC->IP[((uint32_t)(int32_t)IRQn)]               = (uint8_t)((priority << (8U - __NVIC_PRIO_BITS)) & (uint32_t)0xFFUL);
 8000b68:	f880 2300 	strbge.w	r2, [r0, #768]	; 0x300
 8000b6c:	bd30      	pop	{r4, r5, pc}
 8000b6e:	bf00      	nop
 8000b70:	e000ed00 	.word	0xe000ed00
 8000b74:	e000ed14 	.word	0xe000ed14

08000b78 <HAL_NVIC_EnableIRQ>:
  NVIC->ISER[(((uint32_t)(int32_t)IRQn) >> 5UL)] = (uint32_t)(1UL << (((uint32_t)(int32_t)IRQn) & 0x1FUL));
 8000b78:	0942      	lsrs	r2, r0, #5
 8000b7a:	2301      	movs	r3, #1
 8000b7c:	f000 001f 	and.w	r0, r0, #31
 8000b80:	fa03 f000 	lsl.w	r0, r3, r0
 8000b84:	4b01      	ldr	r3, [pc, #4]	; (8000b8c <HAL_NVIC_EnableIRQ+0x14>)
 8000b86:	f843 0022 	str.w	r0, [r3, r2, lsl #2]
 8000b8a:	4770      	bx	lr
 8000b8c:	e000e100 	.word	0xe000e100

08000b90 <HAL_SYSTICK_Config>:
           function <b>SysTick_Config</b> is not included. In this case, the file <b><i>device</i>.h</b>
           must contain a vendor-specific implementation of this function.
 */
__STATIC_INLINE uint32_t SysTick_Config(uint32_t ticks)
{
  if ((ticks - 1UL) > SysTick_LOAD_RELOAD_Msk)
 8000b90:	3801      	subs	r0, #1
 8000b92:	f1b0 7f80 	cmp.w	r0, #16777216	; 0x1000000
 8000b96:	d20a      	bcs.n	8000bae <HAL_SYSTICK_Config+0x1e>
  {
    return (1UL);                                                   /* Reload value impossible */
  }

  SysTick->LOAD  = (uint32_t)(ticks - 1UL);                         /* set reload register */
 8000b98:	4b06      	ldr	r3, [pc, #24]	; (8000bb4 <HAL_SYSTICK_Config+0x24>)
    SCB->SHP[(((uint32_t)(int32_t)IRQn) & 0xFUL)-4UL] = (uint8_t)((priority << (8U - __NVIC_PRIO_BITS)) & (uint32_t)0xFFUL);
 8000b9a:	4a07      	ldr	r2, [pc, #28]	; (8000bb8 <HAL_SYSTICK_Config+0x28>)
  SysTick->LOAD  = (uint32_t)(ticks - 1UL);                         /* set reload register */
 8000b9c:	6058      	str	r0, [r3, #4]
    SCB->SHP[(((uint32_t)(int32_t)IRQn) & 0xFUL)-4UL] = (uint8_t)((priority << (8U - __NVIC_PRIO_BITS)) & (uint32_t)0xFFUL);
 8000b9e:	21f0      	movs	r1, #240	; 0xf0
 8000ba0:	f882 1023 	strb.w	r1, [r2, #35]	; 0x23
  NVIC_SetPriority (SysTick_IRQn, (1UL << __NVIC_PRIO_BITS) - 1UL); /* set Priority for Systick Interrupt */
  SysTick->VAL   = 0UL;                                             /* Load the SysTick Counter Value */
 8000ba4:	2000      	movs	r0, #0
  SysTick->CTRL  = SysTick_CTRL_CLKSOURCE_Msk |
 8000ba6:	2207      	movs	r2, #7
  SysTick->VAL   = 0UL;                                             /* Load the SysTick Counter Value */
 8000ba8:	6098      	str	r0, [r3, #8]
  SysTick->CTRL  = SysTick_CTRL_CLKSOURCE_Msk |
 8000baa:	601a      	str	r2, [r3, #0]
 8000bac:	4770      	bx	lr
    return (1UL);                                                   /* Reload value impossible */
 8000bae:	2001      	movs	r0, #1
  *                  - 1  Function failed.
  */
uint32_t HAL_SYSTICK_Config(uint32_t TicksNumb)
{
   return SysTick_Config(TicksNumb);
}
 8000bb0:	4770      	bx	lr
 8000bb2:	bf00      	nop
 8000bb4:	e000e010 	.word	0xe000e010
 8000bb8:	e000ed00 	.word	0xe000ed00

08000bbc <HAL_SYSTICK_CLKSourceConfig>:
  *             @arg SYSTICK_CLKSOURCE_HCLK_DIV8: AHB clock divided by 8 selected as SysTick clock source.
  *             @arg SYSTICK_CLKSOURCE_HCLK: AHB clock selected as SysTick clock source.
  * @retval None
  */
void HAL_SYSTICK_CLKSourceConfig(uint32_t CLKSource)
{
 8000bbc:	4b04      	ldr	r3, [pc, #16]	; (8000bd0 <HAL_SYSTICK_CLKSourceConfig+0x14>)
  /* Check the parameters */
  assert_param(IS_SYSTICK_CLK_SOURCE(CLKSource));
  if (CLKSource == SYSTICK_CLKSOURCE_HCLK)
  {
    SysTick->CTRL |= SYSTICK_CLKSOURCE_HCLK;
 8000bbe:	681a      	ldr	r2, [r3, #0]
  if (CLKSource == SYSTICK_CLKSOURCE_HCLK)
 8000bc0:	2804      	cmp	r0, #4
    SysTick->CTRL |= SYSTICK_CLKSOURCE_HCLK;
 8000bc2:	bf0c      	ite	eq
 8000bc4:	f042 0204 	orreq.w	r2, r2, #4
  }
  else
  {
    SysTick->CTRL &= ~SYSTICK_CLKSOURCE_HCLK;
 8000bc8:	f022 0204 	bicne.w	r2, r2, #4
 8000bcc:	601a      	str	r2, [r3, #0]
 8000bce:	4770      	bx	lr
 8000bd0:	e000e010 	.word	0xe000e010

08000bd4 <HAL_SYSTICK_Callback>:
/**
  * @brief  SYSTICK callback.
  * @retval None
  */
__weak void HAL_SYSTICK_Callback(void)
{
 8000bd4:	4770      	bx	lr

08000bd6 <HAL_SYSTICK_IRQHandler>:
{
 8000bd6:	b508      	push	{r3, lr}
  HAL_SYSTICK_Callback();
 8000bd8:	f7ff fffc 	bl	8000bd4 <HAL_SYSTICK_Callback>
 8000bdc:	bd08      	pop	{r3, pc}
	...

08000be0 <HAL_GPIO_Init>:
  * @param  GPIO_Init pointer to a GPIO_InitTypeDef structure that contains
  *         the configuration information for the specified GPIO peripheral.
  * @retval None
  */
void HAL_GPIO_Init(GPIO_TypeDef  *GPIOx, GPIO_InitTypeDef *GPIO_Init)
{
 8000be0:	e92d 4ff7 	stmdb	sp!, {r0, r1, r2, r4, r5, r6, r7, r8, r9, sl, fp, lr}
  assert_param(IS_GPIO_PIN(GPIO_Init->Pin));
  assert_param(IS_GPIO_MODE(GPIO_Init->Mode));
  assert_param(IS_GPIO_PULL(GPIO_Init->Pull));

  /* Configure the port pins */
  while (((GPIO_Init->Pin) >> position) != RESET)
 8000be4:	f8d1 8000 	ldr.w	r8, [r1]
      /*--------------------- EXTI Mode Configuration ------------------------*/
      /* Configure the External Interrupt or event for the current IO */
      if((GPIO_Init->Mode & EXTI_MODE) == EXTI_MODE)
      {
        /* Enable SYSCFG Clock */
        __HAL_RCC_SYSCFG_CLK_ENABLE();
 8000be8:	f8df 9190 	ldr.w	r9, [pc, #400]	; 8000d7c <HAL_GPIO_Init+0x19c>
        temp &= ~((0x0FU) << (4U * (position & 0x03U)));
        temp |= (GPIO_GET_INDEX(GPIOx) << (4U * (position & 0x03U)));
        SYSCFG->EXTICR[position >> 2] = temp;

        /* Clear EXTI line configuration */
        temp = EXTI->IMR;
 8000bec:	4a61      	ldr	r2, [pc, #388]	; (8000d74 <HAL_GPIO_Init+0x194>)
  uint32_t position = 0x00U;
 8000bee:	2300      	movs	r3, #0
  while (((GPIO_Init->Pin) >> position) != RESET)
 8000bf0:	fa38 f403 	lsrs.w	r4, r8, r3
 8000bf4:	d102      	bne.n	8000bfc <HAL_GPIO_Init+0x1c>
      }
    }
    
    position++;
  }
}
 8000bf6:	b003      	add	sp, #12
 8000bf8:	e8bd 8ff0 	ldmia.w	sp!, {r4, r5, r6, r7, r8, r9, sl, fp, pc}
    iocurrent = (GPIO_Init->Pin) & (1U << position);
 8000bfc:	f04f 0e01 	mov.w	lr, #1
 8000c00:	fa0e fe03 	lsl.w	lr, lr, r3
    if(iocurrent)
 8000c04:	ea18 060e 	ands.w	r6, r8, lr
 8000c08:	f000 80a6 	beq.w	8000d58 <HAL_GPIO_Init+0x178>
      if((GPIO_Init->Mode == GPIO_MODE_AF_PP) || (GPIO_Init->Mode == GPIO_MODE_AF_OD))
 8000c0c:	684c      	ldr	r4, [r1, #4]
 8000c0e:	f024 0710 	bic.w	r7, r4, #16
 8000c12:	2f02      	cmp	r7, #2
 8000c14:	d116      	bne.n	8000c44 <HAL_GPIO_Init+0x64>
        temp = GPIOx->AFR[position >> 3];
 8000c16:	ea4f 0ad3 	mov.w	sl, r3, lsr #3
 8000c1a:	eb00 0a8a 	add.w	sl, r0, sl, lsl #2
        temp &= ~(0xFU << ((uint32_t)(position & 0x07U) * 4U)) ;
 8000c1e:	f003 0b07 	and.w	fp, r3, #7
        temp = GPIOx->AFR[position >> 3];
 8000c22:	f8da 5020 	ldr.w	r5, [sl, #32]
        temp &= ~(0xFU << ((uint32_t)(position & 0x07U) * 4U)) ;
 8000c26:	ea4f 0b8b 	mov.w	fp, fp, lsl #2
 8000c2a:	f04f 0c0f 	mov.w	ip, #15
 8000c2e:	fa0c fc0b 	lsl.w	ip, ip, fp
 8000c32:	ea25 0c0c 	bic.w	ip, r5, ip
        temp |= ((uint32_t)(GPIO_Init->Alternate) << (((uint32_t)position & 0x07U) * 4U));
 8000c36:	690d      	ldr	r5, [r1, #16]
 8000c38:	fa05 f50b 	lsl.w	r5, r5, fp
 8000c3c:	ea45 050c 	orr.w	r5, r5, ip
        GPIOx->AFR[position >> 3] = temp;
 8000c40:	f8ca 5020 	str.w	r5, [sl, #32]
 8000c44:	ea4f 0a43 	mov.w	sl, r3, lsl #1
      temp &= ~(GPIO_MODER_MODER0 << (position * 2U));
 8000c48:	2503      	movs	r5, #3
      temp = GPIOx->MODER;
 8000c4a:	f8d0 b000 	ldr.w	fp, [r0]
      temp &= ~(GPIO_MODER_MODER0 << (position * 2U));
 8000c4e:	fa05 f50a 	lsl.w	r5, r5, sl
 8000c52:	43ed      	mvns	r5, r5
      temp |= ((GPIO_Init->Mode & GPIO_MODE) << (position * 2U));
 8000c54:	f004 0c03 	and.w	ip, r4, #3
      temp &= ~(GPIO_MODER_MODER0 << (position * 2U));
 8000c58:	ea0b 0b05 	and.w	fp, fp, r5
      temp |= ((GPIO_Init->Mode & GPIO_MODE) << (position * 2U));
 8000c5c:	fa0c fc0a 	lsl.w	ip, ip, sl
      if((GPIO_Init->Mode == GPIO_MODE_OUTPUT_PP) || (GPIO_Init->Mode == GPIO_MODE_AF_PP) ||
 8000c60:	3f01      	subs	r7, #1
      temp |= ((GPIO_Init->Mode & GPIO_MODE) << (position * 2U));
 8000c62:	ea4c 0c0b 	orr.w	ip, ip, fp
      if((GPIO_Init->Mode == GPIO_MODE_OUTPUT_PP) || (GPIO_Init->Mode == GPIO_MODE_AF_PP) ||
 8000c66:	2f01      	cmp	r7, #1
      GPIOx->MODER = temp;
 8000c68:	f8c0 c000 	str.w	ip, [r0]
      if((GPIO_Init->Mode == GPIO_MODE_OUTPUT_PP) || (GPIO_Init->Mode == GPIO_MODE_AF_PP) ||
 8000c6c:	d811      	bhi.n	8000c92 <HAL_GPIO_Init+0xb2>
        temp = GPIOx->OSPEEDR;
 8000c6e:	6887      	ldr	r7, [r0, #8]
        temp &= ~(GPIO_OSPEEDER_OSPEEDR0 << (position * 2U));
 8000c70:	ea07 0b05 	and.w	fp, r7, r5
        temp |= (GPIO_Init->Speed << (position * 2U));
 8000c74:	68cf      	ldr	r7, [r1, #12]
 8000c76:	fa07 fc0a 	lsl.w	ip, r7, sl
 8000c7a:	ea4c 070b 	orr.w	r7, ip, fp
        GPIOx->OSPEEDR = temp;
 8000c7e:	6087      	str	r7, [r0, #8]
        temp = GPIOx->OTYPER;
 8000c80:	6847      	ldr	r7, [r0, #4]
        temp &= ~(GPIO_OTYPER_OT_0 << position) ;
 8000c82:	ea27 0e0e 	bic.w	lr, r7, lr
        temp |= (((GPIO_Init->Mode & GPIO_OUTPUT_TYPE) >> 4U) << position);
 8000c86:	f3c4 1700 	ubfx	r7, r4, #4, #1
 8000c8a:	409f      	lsls	r7, r3
 8000c8c:	ea47 070e 	orr.w	r7, r7, lr
        GPIOx->OTYPER = temp;
 8000c90:	6047      	str	r7, [r0, #4]
      temp = GPIOx->PUPDR;
 8000c92:	68c7      	ldr	r7, [r0, #12]
      temp &= ~(GPIO_PUPDR_PUPDR0 << (position * 2U));
 8000c94:	403d      	ands	r5, r7
      temp |= ((GPIO_Init->Pull) << (position * 2U));
 8000c96:	688f      	ldr	r7, [r1, #8]
 8000c98:	fa07 f70a 	lsl.w	r7, r7, sl
 8000c9c:	433d      	orrs	r5, r7
      GPIOx->PUPDR = temp;
 8000c9e:	60c5      	str	r5, [r0, #12]
      if((GPIO_Init->Mode & EXTI_MODE) == EXTI_MODE)
 8000ca0:	00e5      	lsls	r5, r4, #3
 8000ca2:	d559      	bpl.n	8000d58 <HAL_GPIO_Init+0x178>
        __HAL_RCC_SYSCFG_CLK_ENABLE();
 8000ca4:	f8d9 5018 	ldr.w	r5, [r9, #24]
 8000ca8:	f045 0501 	orr.w	r5, r5, #1
 8000cac:	f8c9 5018 	str.w	r5, [r9, #24]
 8000cb0:	f8d9 5018 	ldr.w	r5, [r9, #24]
 8000cb4:	f023 0703 	bic.w	r7, r3, #3
 8000cb8:	f107 4780 	add.w	r7, r7, #1073741824	; 0x40000000
 8000cbc:	f005 0501 	and.w	r5, r5, #1
 8000cc0:	f507 3780 	add.w	r7, r7, #65536	; 0x10000
 8000cc4:	9501      	str	r5, [sp, #4]
        temp &= ~((0x0FU) << (4U * (position & 0x03U)));
 8000cc6:	f003 0c03 	and.w	ip, r3, #3
        __HAL_RCC_SYSCFG_CLK_ENABLE();
 8000cca:	9d01      	ldr	r5, [sp, #4]
        temp = SYSCFG->EXTICR[position >> 2];
 8000ccc:	68bd      	ldr	r5, [r7, #8]
        temp &= ~((0x0FU) << (4U * (position & 0x03U)));
 8000cce:	ea4f 0c8c 	mov.w	ip, ip, lsl #2
 8000cd2:	f04f 0e0f 	mov.w	lr, #15
 8000cd6:	fa0e fe0c 	lsl.w	lr, lr, ip
        temp |= (GPIO_GET_INDEX(GPIOx) << (4U * (position & 0x03U)));
 8000cda:	f1b0 4f90 	cmp.w	r0, #1207959552	; 0x48000000
        temp &= ~((0x0FU) << (4U * (position & 0x03U)));
 8000cde:	ea25 0e0e 	bic.w	lr, r5, lr
        temp |= (GPIO_GET_INDEX(GPIOx) << (4U * (position & 0x03U)));
 8000ce2:	d03b      	beq.n	8000d5c <HAL_GPIO_Init+0x17c>
 8000ce4:	4d24      	ldr	r5, [pc, #144]	; (8000d78 <HAL_GPIO_Init+0x198>)
 8000ce6:	42a8      	cmp	r0, r5
 8000ce8:	d03a      	beq.n	8000d60 <HAL_GPIO_Init+0x180>
 8000cea:	f505 6580 	add.w	r5, r5, #1024	; 0x400
 8000cee:	42a8      	cmp	r0, r5
 8000cf0:	d038      	beq.n	8000d64 <HAL_GPIO_Init+0x184>
 8000cf2:	f505 6580 	add.w	r5, r5, #1024	; 0x400
 8000cf6:	42a8      	cmp	r0, r5
 8000cf8:	d036      	beq.n	8000d68 <HAL_GPIO_Init+0x188>
 8000cfa:	f505 6580 	add.w	r5, r5, #1024	; 0x400
 8000cfe:	42a8      	cmp	r0, r5
 8000d00:	d034      	beq.n	8000d6c <HAL_GPIO_Init+0x18c>
 8000d02:	f505 6580 	add.w	r5, r5, #1024	; 0x400
 8000d06:	42a8      	cmp	r0, r5
 8000d08:	d032      	beq.n	8000d70 <HAL_GPIO_Init+0x190>
 8000d0a:	f505 6580 	add.w	r5, r5, #1024	; 0x400
 8000d0e:	42a8      	cmp	r0, r5
 8000d10:	bf14      	ite	ne
 8000d12:	2507      	movne	r5, #7
 8000d14:	2506      	moveq	r5, #6
 8000d16:	fa05 f50c 	lsl.w	r5, r5, ip
 8000d1a:	ea45 050e 	orr.w	r5, r5, lr
        SYSCFG->EXTICR[position >> 2] = temp;
 8000d1e:	60bd      	str	r5, [r7, #8]
        temp = EXTI->IMR;
 8000d20:	6815      	ldr	r5, [r2, #0]
        temp &= ~((uint32_t)iocurrent);
 8000d22:	43f7      	mvns	r7, r6
        if((GPIO_Init->Mode & GPIO_MODE_IT) == GPIO_MODE_IT)
 8000d24:	f414 3f80 	tst.w	r4, #65536	; 0x10000
        temp &= ~((uint32_t)iocurrent);
 8000d28:	bf0c      	ite	eq
 8000d2a:	403d      	andeq	r5, r7
          temp |= iocurrent;
 8000d2c:	4335      	orrne	r5, r6
        EXTI->IMR = temp;
 8000d2e:	6015      	str	r5, [r2, #0]
        temp = EXTI->EMR;
 8000d30:	6855      	ldr	r5, [r2, #4]
        if((GPIO_Init->Mode & GPIO_MODE_EVT) == GPIO_MODE_EVT)
 8000d32:	f414 3f00 	tst.w	r4, #131072	; 0x20000
        temp &= ~((uint32_t)iocurrent);
 8000d36:	bf0c      	ite	eq
 8000d38:	403d      	andeq	r5, r7
          temp |= iocurrent;
 8000d3a:	4335      	orrne	r5, r6
        EXTI->EMR = temp;
 8000d3c:	6055      	str	r5, [r2, #4]
        temp = EXTI->RTSR;
 8000d3e:	6895      	ldr	r5, [r2, #8]
        if((GPIO_Init->Mode & RISING_EDGE) == RISING_EDGE)
 8000d40:	f414 1f80 	tst.w	r4, #1048576	; 0x100000
        temp &= ~((uint32_t)iocurrent);
 8000d44:	bf0c      	ite	eq
 8000d46:	403d      	andeq	r5, r7
          temp |= iocurrent;
 8000d48:	4335      	orrne	r5, r6
        EXTI->RTSR = temp;
 8000d4a:	6095      	str	r5, [r2, #8]
        temp = EXTI->FTSR;
 8000d4c:	68d5      	ldr	r5, [r2, #12]
        if((GPIO_Init->Mode & FALLING_EDGE) == FALLING_EDGE)
 8000d4e:	02a4      	lsls	r4, r4, #10
        temp &= ~((uint32_t)iocurrent);
 8000d50:	bf54      	ite	pl
 8000d52:	403d      	andpl	r5, r7
          temp |= iocurrent;
 8000d54:	4335      	orrmi	r5, r6
        EXTI->FTSR = temp;
 8000d56:	60d5      	str	r5, [r2, #12]
    position++;
 8000d58:	3301      	adds	r3, #1
 8000d5a:	e749      	b.n	8000bf0 <HAL_GPIO_Init+0x10>
        temp |= (GPIO_GET_INDEX(GPIOx) << (4U * (position & 0x03U)));
 8000d5c:	2500      	movs	r5, #0
 8000d5e:	e7da      	b.n	8000d16 <HAL_GPIO_Init+0x136>
 8000d60:	2501      	movs	r5, #1
 8000d62:	e7d8      	b.n	8000d16 <HAL_GPIO_Init+0x136>
 8000d64:	2502      	movs	r5, #2
 8000d66:	e7d6      	b.n	8000d16 <HAL_GPIO_Init+0x136>
 8000d68:	2503      	movs	r5, #3
 8000d6a:	e7d4      	b.n	8000d16 <HAL_GPIO_Init+0x136>
 8000d6c:	2504      	movs	r5, #4
 8000d6e:	e7d2      	b.n	8000d16 <HAL_GPIO_Init+0x136>
 8000d70:	2505      	movs	r5, #5
 8000d72:	e7d0      	b.n	8000d16 <HAL_GPIO_Init+0x136>
 8000d74:	40010400 	.word	0x40010400
 8000d78:	48000400 	.word	0x48000400
 8000d7c:	40021000 	.word	0x40021000

08000d80 <HAL_GPIO_ReadPin>:
  GPIO_PinState bitstatus;

  /* Check the parameters */
  assert_param(IS_GPIO_PIN(GPIO_Pin));

  if((GPIOx->IDR & GPIO_Pin) != (uint32_t)GPIO_PIN_RESET)
 8000d80:	6903      	ldr	r3, [r0, #16]
 8000d82:	4219      	tst	r1, r3
  else
  {
    bitstatus = GPIO_PIN_RESET;
  }
  return bitstatus;
}
 8000d84:	bf14      	ite	ne
 8000d86:	2001      	movne	r0, #1
 8000d88:	2000      	moveq	r0, #0
 8000d8a:	4770      	bx	lr

08000d8c <HAL_GPIO_WritePin>:
{
  /* Check the parameters */
  assert_param(IS_GPIO_PIN(GPIO_Pin));
  assert_param(IS_GPIO_PIN_ACTION(PinState));

  if(PinState != GPIO_PIN_RESET)
 8000d8c:	b10a      	cbz	r2, 8000d92 <HAL_GPIO_WritePin+0x6>
  {
    GPIOx->BSRR = (uint32_t)GPIO_Pin;
 8000d8e:	6181      	str	r1, [r0, #24]
 8000d90:	4770      	bx	lr
  }
  else
  {
    GPIOx->BRR = (uint32_t)GPIO_Pin;
 8000d92:	6281      	str	r1, [r0, #40]	; 0x28
 8000d94:	4770      	bx	lr
	...

08000d98 <HAL_RCC_OscConfig>:
  /* Check the parameters */
  assert_param(RCC_OscInitStruct != NULL);
  assert_param(IS_RCC_OSCILLATORTYPE(RCC_OscInitStruct->OscillatorType));

  /*------------------------------- HSE Configuration ------------------------*/ 
  if(((RCC_OscInitStruct->OscillatorType) & RCC_OSCILLATORTYPE_HSE) == RCC_OSCILLATORTYPE_HSE)
 8000d98:	6803      	ldr	r3, [r0, #0]
{
 8000d9a:	e92d 47f3 	stmdb	sp!, {r0, r1, r4, r5, r6, r7, r8, r9, sl, lr}
  if(((RCC_OscInitStruct->OscillatorType) & RCC_OSCILLATORTYPE_HSE) == RCC_OSCILLATORTYPE_HSE)
 8000d9e:	07df      	lsls	r7, r3, #31
{
 8000da0:	4605      	mov	r5, r0
  if(((RCC_OscInitStruct->OscillatorType) & RCC_OSCILLATORTYPE_HSE) == RCC_OSCILLATORTYPE_HSE)
 8000da2:	d411      	bmi.n	8000dc8 <HAL_RCC_OscConfig+0x30>
        }
      }
    }
  }
  /*----------------------------- HSI Configuration --------------------------*/ 
  if(((RCC_OscInitStruct->OscillatorType) & RCC_OSCILLATORTYPE_HSI) == RCC_OSCILLATORTYPE_HSI)
 8000da4:	682b      	ldr	r3, [r5, #0]
 8000da6:	079e      	lsls	r6, r3, #30
 8000da8:	f100 808b 	bmi.w	8000ec2 <HAL_RCC_OscConfig+0x12a>
        }
      }
    }
  }
  /*------------------------------ LSI Configuration -------------------------*/ 
  if(((RCC_OscInitStruct->OscillatorType) & RCC_OSCILLATORTYPE_LSI) == RCC_OSCILLATORTYPE_LSI)
 8000dac:	682b      	ldr	r3, [r5, #0]
 8000dae:	071c      	lsls	r4, r3, #28
 8000db0:	f100 80fe 	bmi.w	8000fb0 <HAL_RCC_OscConfig+0x218>
        }
      }
    }
  }
  /*------------------------------ LSE Configuration -------------------------*/ 
  if(((RCC_OscInitStruct->OscillatorType) & RCC_OSCILLATORTYPE_LSE) == RCC_OSCILLATORTYPE_LSE)
 8000db4:	682b      	ldr	r3, [r5, #0]
 8000db6:	0758      	lsls	r0, r3, #29
 8000db8:	f100 8147 	bmi.w	800104a <HAL_RCC_OscConfig+0x2b2>
  }

  /*-------------------------------- PLL Configuration -----------------------*/
  /* Check the parameters */
  assert_param(IS_RCC_PLL(RCC_OscInitStruct->PLL.PLLState));
  if ((RCC_OscInitStruct->PLL.PLLState) != RCC_PLL_NONE)
 8000dbc:	69aa      	ldr	r2, [r5, #24]
 8000dbe:	2a00      	cmp	r2, #0
 8000dc0:	f040 81dd 	bne.w	800117e <HAL_RCC_OscConfig+0x3e6>
    {
      return HAL_ERROR;
    }
  }
  
  return HAL_OK;
 8000dc4:	2000      	movs	r0, #0
 8000dc6:	e024      	b.n	8000e12 <HAL_RCC_OscConfig+0x7a>
    if((__HAL_RCC_GET_SYSCLK_SOURCE() == RCC_SYSCLKSOURCE_STATUS_HSE) 
 8000dc8:	4cbd      	ldr	r4, [pc, #756]	; (80010c0 <HAL_RCC_OscConfig+0x328>)
 8000dca:	6863      	ldr	r3, [r4, #4]
 8000dcc:	f003 030c 	and.w	r3, r3, #12
 8000dd0:	2b04      	cmp	r3, #4
 8000dd2:	d00a      	beq.n	8000dea <HAL_RCC_OscConfig+0x52>
       || ((__HAL_RCC_GET_SYSCLK_SOURCE() == RCC_SYSCLKSOURCE_STATUS_PLLCLK) && (__HAL_RCC_GET_PLL_OSCSOURCE() == RCC_PLLSOURCE_HSE)))
 8000dd4:	6863      	ldr	r3, [r4, #4]
 8000dd6:	f003 030c 	and.w	r3, r3, #12
 8000dda:	2b08      	cmp	r3, #8
 8000ddc:	d11c      	bne.n	8000e18 <HAL_RCC_OscConfig+0x80>
 8000dde:	6863      	ldr	r3, [r4, #4]
 8000de0:	f403 33c0 	and.w	r3, r3, #98304	; 0x18000
 8000de4:	f5b3 3f80 	cmp.w	r3, #65536	; 0x10000
 8000de8:	d116      	bne.n	8000e18 <HAL_RCC_OscConfig+0x80>
__attribute__((always_inline)) __STATIC_INLINE uint32_t __RBIT(uint32_t value)
{
  uint32_t result;

#if       (__CORTEX_M >= 0x03U) || (__CORTEX_SC >= 300U)
   __ASM volatile ("rbit %0, %1" : "=r" (result) : "r" (value) );
 8000dea:	f44f 3300 	mov.w	r3, #131072	; 0x20000
 8000dee:	fa93 f2a3 	rbit	r2, r3
      if((__HAL_RCC_GET_FLAG(RCC_FLAG_HSERDY) != RESET) && (RCC_OscInitStruct->HSEState == RCC_HSE_OFF))
 8000df2:	6821      	ldr	r1, [r4, #0]
 8000df4:	fa93 f3a3 	rbit	r3, r3
 8000df8:	fab3 f383 	clz	r3, r3
 8000dfc:	f003 031f 	and.w	r3, r3, #31
 8000e00:	2201      	movs	r2, #1
 8000e02:	fa02 f303 	lsl.w	r3, r2, r3
 8000e06:	420b      	tst	r3, r1
 8000e08:	d0cc      	beq.n	8000da4 <HAL_RCC_OscConfig+0xc>
 8000e0a:	686b      	ldr	r3, [r5, #4]
 8000e0c:	2b00      	cmp	r3, #0
 8000e0e:	d1c9      	bne.n	8000da4 <HAL_RCC_OscConfig+0xc>
        return HAL_ERROR;
 8000e10:	2001      	movs	r0, #1
}
 8000e12:	b002      	add	sp, #8
 8000e14:	e8bd 87f0 	ldmia.w	sp!, {r4, r5, r6, r7, r8, r9, sl, pc}
      __HAL_RCC_HSE_CONFIG(RCC_OscInitStruct->HSEState);
 8000e18:	686b      	ldr	r3, [r5, #4]
 8000e1a:	f5b3 3f80 	cmp.w	r3, #65536	; 0x10000
 8000e1e:	d11e      	bne.n	8000e5e <HAL_RCC_OscConfig+0xc6>
 8000e20:	6823      	ldr	r3, [r4, #0]
 8000e22:	f443 3380 	orr.w	r3, r3, #65536	; 0x10000
 8000e26:	6023      	str	r3, [r4, #0]
        tickstart = HAL_GetTick();
 8000e28:	f7ff fe4a 	bl	8000ac0 <HAL_GetTick>
 8000e2c:	f44f 3600 	mov.w	r6, #131072	; 0x20000
 8000e30:	4680      	mov	r8, r0
        while(__HAL_RCC_GET_FLAG(RCC_FLAG_HSERDY) == RESET)
 8000e32:	2701      	movs	r7, #1
 8000e34:	fa96 f3a6 	rbit	r3, r6
 8000e38:	6822      	ldr	r2, [r4, #0]
 8000e3a:	fa96 f3a6 	rbit	r3, r6
 8000e3e:	fab3 f383 	clz	r3, r3
 8000e42:	f003 031f 	and.w	r3, r3, #31
 8000e46:	fa07 f303 	lsl.w	r3, r7, r3
 8000e4a:	4213      	tst	r3, r2
 8000e4c:	d1aa      	bne.n	8000da4 <HAL_RCC_OscConfig+0xc>
          if((HAL_GetTick() - tickstart ) > HSE_TIMEOUT_VALUE)
 8000e4e:	f7ff fe37 	bl	8000ac0 <HAL_GetTick>
 8000e52:	eba0 0008 	sub.w	r0, r0, r8
 8000e56:	2864      	cmp	r0, #100	; 0x64
 8000e58:	d9ec      	bls.n	8000e34 <HAL_RCC_OscConfig+0x9c>
            return HAL_TIMEOUT;
 8000e5a:	2003      	movs	r0, #3
 8000e5c:	e7d9      	b.n	8000e12 <HAL_RCC_OscConfig+0x7a>
      __HAL_RCC_HSE_CONFIG(RCC_OscInitStruct->HSEState);
 8000e5e:	bb0b      	cbnz	r3, 8000ea4 <HAL_RCC_OscConfig+0x10c>
 8000e60:	6823      	ldr	r3, [r4, #0]
 8000e62:	f423 3380 	bic.w	r3, r3, #65536	; 0x10000
 8000e66:	6023      	str	r3, [r4, #0]
 8000e68:	6823      	ldr	r3, [r4, #0]
 8000e6a:	f423 2380 	bic.w	r3, r3, #262144	; 0x40000
 8000e6e:	6023      	str	r3, [r4, #0]
        tickstart = HAL_GetTick();
 8000e70:	f7ff fe26 	bl	8000ac0 <HAL_GetTick>
 8000e74:	f44f 3600 	mov.w	r6, #131072	; 0x20000
 8000e78:	4680      	mov	r8, r0
        while(__HAL_RCC_GET_FLAG(RCC_FLAG_HSERDY) != RESET)
 8000e7a:	2701      	movs	r7, #1
 8000e7c:	fa96 f3a6 	rbit	r3, r6
 8000e80:	6822      	ldr	r2, [r4, #0]
 8000e82:	fa96 f3a6 	rbit	r3, r6
 8000e86:	fab3 f383 	clz	r3, r3
 8000e8a:	f003 031f 	and.w	r3, r3, #31
 8000e8e:	fa07 f303 	lsl.w	r3, r7, r3
 8000e92:	4213      	tst	r3, r2
 8000e94:	d086      	beq.n	8000da4 <HAL_RCC_OscConfig+0xc>
           if((HAL_GetTick() - tickstart ) > HSE_TIMEOUT_VALUE)
 8000e96:	f7ff fe13 	bl	8000ac0 <HAL_GetTick>
 8000e9a:	eba0 0008 	sub.w	r0, r0, r8
 8000e9e:	2864      	cmp	r0, #100	; 0x64
 8000ea0:	d9ec      	bls.n	8000e7c <HAL_RCC_OscConfig+0xe4>
 8000ea2:	e7da      	b.n	8000e5a <HAL_RCC_OscConfig+0xc2>
      __HAL_RCC_HSE_CONFIG(RCC_OscInitStruct->HSEState);
 8000ea4:	f5b3 2fa0 	cmp.w	r3, #327680	; 0x50000
 8000ea8:	6823      	ldr	r3, [r4, #0]
 8000eaa:	d103      	bne.n	8000eb4 <HAL_RCC_OscConfig+0x11c>
 8000eac:	f443 2380 	orr.w	r3, r3, #262144	; 0x40000
 8000eb0:	6023      	str	r3, [r4, #0]
 8000eb2:	e7b5      	b.n	8000e20 <HAL_RCC_OscConfig+0x88>
 8000eb4:	f423 3380 	bic.w	r3, r3, #65536	; 0x10000
 8000eb8:	6023      	str	r3, [r4, #0]
 8000eba:	6823      	ldr	r3, [r4, #0]
 8000ebc:	f423 2380 	bic.w	r3, r3, #262144	; 0x40000
 8000ec0:	e7b1      	b.n	8000e26 <HAL_RCC_OscConfig+0x8e>
    if((__HAL_RCC_GET_SYSCLK_SOURCE() == RCC_SYSCLKSOURCE_STATUS_HSI) 
 8000ec2:	4c7f      	ldr	r4, [pc, #508]	; (80010c0 <HAL_RCC_OscConfig+0x328>)
 8000ec4:	6863      	ldr	r3, [r4, #4]
 8000ec6:	f013 0f0c 	tst.w	r3, #12
 8000eca:	d00a      	beq.n	8000ee2 <HAL_RCC_OscConfig+0x14a>
       || ((__HAL_RCC_GET_SYSCLK_SOURCE() == RCC_SYSCLKSOURCE_STATUS_PLLCLK) && (__HAL_RCC_GET_PLL_OSCSOURCE() == RCC_PLLSOURCE_HSI)))
 8000ecc:	6863      	ldr	r3, [r4, #4]
 8000ece:	f003 030c 	and.w	r3, r3, #12
 8000ed2:	2b08      	cmp	r3, #8
 8000ed4:	d124      	bne.n	8000f20 <HAL_RCC_OscConfig+0x188>
 8000ed6:	6863      	ldr	r3, [r4, #4]
 8000ed8:	f403 33c0 	and.w	r3, r3, #98304	; 0x18000
 8000edc:	f5b3 4f00 	cmp.w	r3, #32768	; 0x8000
 8000ee0:	d11e      	bne.n	8000f20 <HAL_RCC_OscConfig+0x188>
 8000ee2:	2302      	movs	r3, #2
 8000ee4:	fa93 f2a3 	rbit	r2, r3
      if((__HAL_RCC_GET_FLAG(RCC_FLAG_HSIRDY) != RESET) && (RCC_OscInitStruct->HSIState != RCC_HSI_ON))
 8000ee8:	6821      	ldr	r1, [r4, #0]
 8000eea:	fa93 f3a3 	rbit	r3, r3
 8000eee:	fab3 f383 	clz	r3, r3
 8000ef2:	f003 031f 	and.w	r3, r3, #31
 8000ef6:	2201      	movs	r2, #1
 8000ef8:	fa02 f303 	lsl.w	r3, r2, r3
 8000efc:	420b      	tst	r3, r1
 8000efe:	d002      	beq.n	8000f06 <HAL_RCC_OscConfig+0x16e>
 8000f00:	68eb      	ldr	r3, [r5, #12]
 8000f02:	4293      	cmp	r3, r2
 8000f04:	d184      	bne.n	8000e10 <HAL_RCC_OscConfig+0x78>
        __HAL_RCC_HSI_CALIBRATIONVALUE_ADJUST(RCC_OscInitStruct->HSICalibrationValue);
 8000f06:	6821      	ldr	r1, [r4, #0]
 8000f08:	23f8      	movs	r3, #248	; 0xf8
 8000f0a:	fa93 f3a3 	rbit	r3, r3
 8000f0e:	fab3 f283 	clz	r2, r3
 8000f12:	692b      	ldr	r3, [r5, #16]
 8000f14:	4093      	lsls	r3, r2
 8000f16:	f021 02f8 	bic.w	r2, r1, #248	; 0xf8
 8000f1a:	4313      	orrs	r3, r2
 8000f1c:	6023      	str	r3, [r4, #0]
 8000f1e:	e745      	b.n	8000dac <HAL_RCC_OscConfig+0x14>
      if(RCC_OscInitStruct->HSIState != RCC_HSI_OFF)
 8000f20:	68ea      	ldr	r2, [r5, #12]
 8000f22:	2601      	movs	r6, #1
 8000f24:	b30a      	cbz	r2, 8000f6a <HAL_RCC_OscConfig+0x1d2>
 8000f26:	fa96 f3a6 	rbit	r3, r6
        __HAL_RCC_HSI_ENABLE();
 8000f2a:	fab3 f383 	clz	r3, r3
 8000f2e:	f103 5384 	add.w	r3, r3, #276824064	; 0x10800000
 8000f32:	f503 1384 	add.w	r3, r3, #1081344	; 0x108000
 8000f36:	009b      	lsls	r3, r3, #2
 8000f38:	2702      	movs	r7, #2
 8000f3a:	601e      	str	r6, [r3, #0]
        tickstart = HAL_GetTick();
 8000f3c:	f7ff fdc0 	bl	8000ac0 <HAL_GetTick>
 8000f40:	4680      	mov	r8, r0
 8000f42:	fa97 f3a7 	rbit	r3, r7
        while(__HAL_RCC_GET_FLAG(RCC_FLAG_HSIRDY) == RESET)
 8000f46:	6822      	ldr	r2, [r4, #0]
 8000f48:	fa97 f3a7 	rbit	r3, r7
 8000f4c:	fab3 f383 	clz	r3, r3
 8000f50:	f003 031f 	and.w	r3, r3, #31
 8000f54:	fa06 f303 	lsl.w	r3, r6, r3
 8000f58:	4213      	tst	r3, r2
 8000f5a:	d1d4      	bne.n	8000f06 <HAL_RCC_OscConfig+0x16e>
          if((HAL_GetTick() - tickstart ) > HSI_TIMEOUT_VALUE)
 8000f5c:	f7ff fdb0 	bl	8000ac0 <HAL_GetTick>
 8000f60:	eba0 0008 	sub.w	r0, r0, r8
 8000f64:	2802      	cmp	r0, #2
 8000f66:	d9ec      	bls.n	8000f42 <HAL_RCC_OscConfig+0x1aa>
 8000f68:	e777      	b.n	8000e5a <HAL_RCC_OscConfig+0xc2>
 8000f6a:	fa96 f3a6 	rbit	r3, r6
        __HAL_RCC_HSI_DISABLE();
 8000f6e:	fab3 f383 	clz	r3, r3
 8000f72:	f103 5384 	add.w	r3, r3, #276824064	; 0x10800000
 8000f76:	f503 1384 	add.w	r3, r3, #1081344	; 0x108000
 8000f7a:	009b      	lsls	r3, r3, #2
 8000f7c:	2702      	movs	r7, #2
 8000f7e:	601a      	str	r2, [r3, #0]
        tickstart = HAL_GetTick();
 8000f80:	f7ff fd9e 	bl	8000ac0 <HAL_GetTick>
 8000f84:	4680      	mov	r8, r0
 8000f86:	fa97 f3a7 	rbit	r3, r7
        while(__HAL_RCC_GET_FLAG(RCC_FLAG_HSIRDY) != RESET)
 8000f8a:	6822      	ldr	r2, [r4, #0]
 8000f8c:	fa97 f3a7 	rbit	r3, r7
 8000f90:	fab3 f383 	clz	r3, r3
 8000f94:	f003 031f 	and.w	r3, r3, #31
 8000f98:	fa06 f303 	lsl.w	r3, r6, r3
 8000f9c:	4213      	tst	r3, r2
 8000f9e:	f43f af05 	beq.w	8000dac <HAL_RCC_OscConfig+0x14>
          if((HAL_GetTick() - tickstart ) > HSI_TIMEOUT_VALUE)
 8000fa2:	f7ff fd8d 	bl	8000ac0 <HAL_GetTick>
 8000fa6:	eba0 0008 	sub.w	r0, r0, r8
 8000faa:	2802      	cmp	r0, #2
 8000fac:	d9eb      	bls.n	8000f86 <HAL_RCC_OscConfig+0x1ee>
 8000fae:	e754      	b.n	8000e5a <HAL_RCC_OscConfig+0xc2>
    if(RCC_OscInitStruct->LSIState != RCC_LSI_OFF)
 8000fb0:	696a      	ldr	r2, [r5, #20]
 8000fb2:	4e43      	ldr	r6, [pc, #268]	; (80010c0 <HAL_RCC_OscConfig+0x328>)
 8000fb4:	4943      	ldr	r1, [pc, #268]	; (80010c4 <HAL_RCC_OscConfig+0x32c>)
 8000fb6:	2401      	movs	r4, #1
 8000fb8:	b31a      	cbz	r2, 8001002 <HAL_RCC_OscConfig+0x26a>
 8000fba:	fa94 f3a4 	rbit	r3, r4
      __HAL_RCC_LSI_ENABLE();
 8000fbe:	fab3 f383 	clz	r3, r3
 8000fc2:	440b      	add	r3, r1
 8000fc4:	009b      	lsls	r3, r3, #2
 8000fc6:	2702      	movs	r7, #2
 8000fc8:	601c      	str	r4, [r3, #0]
      tickstart = HAL_GetTick();
 8000fca:	f7ff fd79 	bl	8000ac0 <HAL_GetTick>
 8000fce:	4680      	mov	r8, r0
 8000fd0:	fa97 f3a7 	rbit	r3, r7
 8000fd4:	fa97 f3a7 	rbit	r3, r7
 8000fd8:	fa97 f3a7 	rbit	r3, r7
      while(__HAL_RCC_GET_FLAG(RCC_FLAG_LSIRDY) == RESET)
 8000fdc:	6a72      	ldr	r2, [r6, #36]	; 0x24
 8000fde:	fa97 f3a7 	rbit	r3, r7
 8000fe2:	fab3 f383 	clz	r3, r3
 8000fe6:	f003 031f 	and.w	r3, r3, #31
 8000fea:	fa04 f303 	lsl.w	r3, r4, r3
 8000fee:	4213      	tst	r3, r2
 8000ff0:	f47f aee0 	bne.w	8000db4 <HAL_RCC_OscConfig+0x1c>
        if((HAL_GetTick() - tickstart ) > LSI_TIMEOUT_VALUE)
 8000ff4:	f7ff fd64 	bl	8000ac0 <HAL_GetTick>
 8000ff8:	eba0 0008 	sub.w	r0, r0, r8
 8000ffc:	2802      	cmp	r0, #2
 8000ffe:	d9e7      	bls.n	8000fd0 <HAL_RCC_OscConfig+0x238>
 8001000:	e72b      	b.n	8000e5a <HAL_RCC_OscConfig+0xc2>
 8001002:	fa94 f3a4 	rbit	r3, r4
      __HAL_RCC_LSI_DISABLE();
 8001006:	fab3 f383 	clz	r3, r3
 800100a:	440b      	add	r3, r1
 800100c:	009b      	lsls	r3, r3, #2
 800100e:	2702      	movs	r7, #2
 8001010:	601a      	str	r2, [r3, #0]
      tickstart = HAL_GetTick();
 8001012:	f7ff fd55 	bl	8000ac0 <HAL_GetTick>
 8001016:	4680      	mov	r8, r0
 8001018:	fa97 f3a7 	rbit	r3, r7
 800101c:	fa97 f3a7 	rbit	r3, r7
 8001020:	fa97 f3a7 	rbit	r3, r7
      while(__HAL_RCC_GET_FLAG(RCC_FLAG_LSIRDY) != RESET)
 8001024:	6a72      	ldr	r2, [r6, #36]	; 0x24
 8001026:	fa97 f3a7 	rbit	r3, r7
 800102a:	fab3 f383 	clz	r3, r3
 800102e:	f003 031f 	and.w	r3, r3, #31
 8001032:	fa04 f303 	lsl.w	r3, r4, r3
 8001036:	4213      	tst	r3, r2
 8001038:	f43f aebc 	beq.w	8000db4 <HAL_RCC_OscConfig+0x1c>
        if((HAL_GetTick() - tickstart ) > LSI_TIMEOUT_VALUE)
 800103c:	f7ff fd40 	bl	8000ac0 <HAL_GetTick>
 8001040:	eba0 0008 	sub.w	r0, r0, r8
 8001044:	2802      	cmp	r0, #2
 8001046:	d9e7      	bls.n	8001018 <HAL_RCC_OscConfig+0x280>
 8001048:	e707      	b.n	8000e5a <HAL_RCC_OscConfig+0xc2>
    if(__HAL_RCC_PWR_IS_CLK_DISABLED())
 800104a:	4c1d      	ldr	r4, [pc, #116]	; (80010c0 <HAL_RCC_OscConfig+0x328>)
 800104c:	69e3      	ldr	r3, [r4, #28]
 800104e:	00d9      	lsls	r1, r3, #3
 8001050:	d434      	bmi.n	80010bc <HAL_RCC_OscConfig+0x324>
      __HAL_RCC_PWR_CLK_ENABLE();
 8001052:	69e3      	ldr	r3, [r4, #28]
 8001054:	f043 5380 	orr.w	r3, r3, #268435456	; 0x10000000
 8001058:	61e3      	str	r3, [r4, #28]
 800105a:	69e3      	ldr	r3, [r4, #28]
 800105c:	f003 5380 	and.w	r3, r3, #268435456	; 0x10000000
 8001060:	9301      	str	r3, [sp, #4]
 8001062:	9b01      	ldr	r3, [sp, #4]
      pwrclkchanged = SET;
 8001064:	2601      	movs	r6, #1
    if(HAL_IS_BIT_CLR(PWR->CR, PWR_CR_DBP))
 8001066:	4f18      	ldr	r7, [pc, #96]	; (80010c8 <HAL_RCC_OscConfig+0x330>)
 8001068:	683b      	ldr	r3, [r7, #0]
 800106a:	05da      	lsls	r2, r3, #23
 800106c:	d52e      	bpl.n	80010cc <HAL_RCC_OscConfig+0x334>
    __HAL_RCC_LSE_CONFIG(RCC_OscInitStruct->LSEState);
 800106e:	68ab      	ldr	r3, [r5, #8]
 8001070:	2b01      	cmp	r3, #1
 8001072:	d13c      	bne.n	80010ee <HAL_RCC_OscConfig+0x356>
 8001074:	6a23      	ldr	r3, [r4, #32]
 8001076:	f043 0301 	orr.w	r3, r3, #1
 800107a:	6223      	str	r3, [r4, #32]
      tickstart = HAL_GetTick();
 800107c:	f7ff fd20 	bl	8000ac0 <HAL_GetTick>
 8001080:	2702      	movs	r7, #2
 8001082:	4682      	mov	sl, r0
 8001084:	46b9      	mov	r9, r7
      while(__HAL_RCC_GET_FLAG(RCC_FLAG_LSERDY) == RESET)
 8001086:	f04f 0801 	mov.w	r8, #1
 800108a:	fa97 f3a7 	rbit	r3, r7
 800108e:	fa97 f3a7 	rbit	r3, r7
 8001092:	2b00      	cmp	r3, #0
 8001094:	d06b      	beq.n	800116e <HAL_RCC_OscConfig+0x3d6>
 8001096:	6a22      	ldr	r2, [r4, #32]
 8001098:	fa99 f3a9 	rbit	r3, r9
 800109c:	fab3 f383 	clz	r3, r3
 80010a0:	f003 031f 	and.w	r3, r3, #31
 80010a4:	fa08 f303 	lsl.w	r3, r8, r3
 80010a8:	4213      	tst	r3, r2
 80010aa:	d057      	beq.n	800115c <HAL_RCC_OscConfig+0x3c4>
    if(pwrclkchanged == SET)
 80010ac:	2e00      	cmp	r6, #0
 80010ae:	f43f ae85 	beq.w	8000dbc <HAL_RCC_OscConfig+0x24>
      __HAL_RCC_PWR_CLK_DISABLE();
 80010b2:	69e3      	ldr	r3, [r4, #28]
 80010b4:	f023 5380 	bic.w	r3, r3, #268435456	; 0x10000000
 80010b8:	61e3      	str	r3, [r4, #28]
 80010ba:	e67f      	b.n	8000dbc <HAL_RCC_OscConfig+0x24>
    FlagStatus       pwrclkchanged = RESET;
 80010bc:	2600      	movs	r6, #0
 80010be:	e7d2      	b.n	8001066 <HAL_RCC_OscConfig+0x2ce>
 80010c0:	40021000 	.word	0x40021000
 80010c4:	10908120 	.word	0x10908120
 80010c8:	40007000 	.word	0x40007000
      SET_BIT(PWR->CR, PWR_CR_DBP);
 80010cc:	683b      	ldr	r3, [r7, #0]
 80010ce:	f443 7380 	orr.w	r3, r3, #256	; 0x100
 80010d2:	603b      	str	r3, [r7, #0]
      tickstart = HAL_GetTick();
 80010d4:	f7ff fcf4 	bl	8000ac0 <HAL_GetTick>
 80010d8:	4680      	mov	r8, r0
      while(HAL_IS_BIT_CLR(PWR->CR, PWR_CR_DBP))
 80010da:	683b      	ldr	r3, [r7, #0]
 80010dc:	05db      	lsls	r3, r3, #23
 80010de:	d4c6      	bmi.n	800106e <HAL_RCC_OscConfig+0x2d6>
        if((HAL_GetTick() - tickstart) > RCC_DBP_TIMEOUT_VALUE)
 80010e0:	f7ff fcee 	bl	8000ac0 <HAL_GetTick>
 80010e4:	eba0 0008 	sub.w	r0, r0, r8
 80010e8:	2864      	cmp	r0, #100	; 0x64
 80010ea:	d9f6      	bls.n	80010da <HAL_RCC_OscConfig+0x342>
 80010ec:	e6b5      	b.n	8000e5a <HAL_RCC_OscConfig+0xc2>
    __HAL_RCC_LSE_CONFIG(RCC_OscInitStruct->LSEState);
 80010ee:	bb3b      	cbnz	r3, 8001140 <HAL_RCC_OscConfig+0x3a8>
 80010f0:	6a23      	ldr	r3, [r4, #32]
 80010f2:	f023 0301 	bic.w	r3, r3, #1
 80010f6:	6223      	str	r3, [r4, #32]
 80010f8:	6a23      	ldr	r3, [r4, #32]
 80010fa:	f023 0304 	bic.w	r3, r3, #4
 80010fe:	6223      	str	r3, [r4, #32]
      tickstart = HAL_GetTick();
 8001100:	f7ff fcde 	bl	8000ac0 <HAL_GetTick>
 8001104:	2702      	movs	r7, #2
 8001106:	4682      	mov	sl, r0
 8001108:	46b9      	mov	r9, r7
      while(__HAL_RCC_GET_FLAG(RCC_FLAG_LSERDY) != RESET)
 800110a:	f04f 0801 	mov.w	r8, #1
 800110e:	fa97 f3a7 	rbit	r3, r7
 8001112:	fa97 f3a7 	rbit	r3, r7
 8001116:	b373      	cbz	r3, 8001176 <HAL_RCC_OscConfig+0x3de>
 8001118:	6a22      	ldr	r2, [r4, #32]
 800111a:	fa99 f3a9 	rbit	r3, r9
 800111e:	fab3 f383 	clz	r3, r3
 8001122:	f003 031f 	and.w	r3, r3, #31
 8001126:	fa08 f303 	lsl.w	r3, r8, r3
 800112a:	4213      	tst	r3, r2
 800112c:	d0be      	beq.n	80010ac <HAL_RCC_OscConfig+0x314>
        if((HAL_GetTick() - tickstart ) > RCC_LSE_TIMEOUT_VALUE)
 800112e:	f7ff fcc7 	bl	8000ac0 <HAL_GetTick>
 8001132:	f241 3388 	movw	r3, #5000	; 0x1388
 8001136:	eba0 000a 	sub.w	r0, r0, sl
 800113a:	4298      	cmp	r0, r3
 800113c:	d9e7      	bls.n	800110e <HAL_RCC_OscConfig+0x376>
 800113e:	e68c      	b.n	8000e5a <HAL_RCC_OscConfig+0xc2>
    __HAL_RCC_LSE_CONFIG(RCC_OscInitStruct->LSEState);
 8001140:	2b05      	cmp	r3, #5
 8001142:	6a23      	ldr	r3, [r4, #32]
 8001144:	d103      	bne.n	800114e <HAL_RCC_OscConfig+0x3b6>
 8001146:	f043 0304 	orr.w	r3, r3, #4
 800114a:	6223      	str	r3, [r4, #32]
 800114c:	e792      	b.n	8001074 <HAL_RCC_OscConfig+0x2dc>
 800114e:	f023 0301 	bic.w	r3, r3, #1
 8001152:	6223      	str	r3, [r4, #32]
 8001154:	6a23      	ldr	r3, [r4, #32]
 8001156:	f023 0304 	bic.w	r3, r3, #4
 800115a:	e78e      	b.n	800107a <HAL_RCC_OscConfig+0x2e2>
        if((HAL_GetTick() - tickstart ) > RCC_LSE_TIMEOUT_VALUE)
 800115c:	f7ff fcb0 	bl	8000ac0 <HAL_GetTick>
 8001160:	f241 3388 	movw	r3, #5000	; 0x1388
 8001164:	eba0 000a 	sub.w	r0, r0, sl
 8001168:	4298      	cmp	r0, r3
 800116a:	d98e      	bls.n	800108a <HAL_RCC_OscConfig+0x2f2>
 800116c:	e675      	b.n	8000e5a <HAL_RCC_OscConfig+0xc2>
 800116e:	fa97 f3a7 	rbit	r3, r7
      while(__HAL_RCC_GET_FLAG(RCC_FLAG_LSERDY) == RESET)
 8001172:	6a62      	ldr	r2, [r4, #36]	; 0x24
 8001174:	e790      	b.n	8001098 <HAL_RCC_OscConfig+0x300>
 8001176:	fa97 f3a7 	rbit	r3, r7
      while(__HAL_RCC_GET_FLAG(RCC_FLAG_LSERDY) != RESET)
 800117a:	6a62      	ldr	r2, [r4, #36]	; 0x24
 800117c:	e7cd      	b.n	800111a <HAL_RCC_OscConfig+0x382>
    if(__HAL_RCC_GET_SYSCLK_SOURCE() != RCC_SYSCLKSOURCE_STATUS_PLLCLK)
 800117e:	4c44      	ldr	r4, [pc, #272]	; (8001290 <HAL_RCC_OscConfig+0x4f8>)
 8001180:	6863      	ldr	r3, [r4, #4]
 8001182:	f003 030c 	and.w	r3, r3, #12
 8001186:	2b08      	cmp	r3, #8
 8001188:	f43f ae42 	beq.w	8000e10 <HAL_RCC_OscConfig+0x78>
      if((RCC_OscInitStruct->PLL.PLLState) == RCC_PLL_ON)
 800118c:	2a02      	cmp	r2, #2
 800118e:	f04f 7380 	mov.w	r3, #16777216	; 0x1000000
 8001192:	d158      	bne.n	8001246 <HAL_RCC_OscConfig+0x4ae>
 8001194:	fa93 f3a3 	rbit	r3, r3
        __HAL_RCC_PLL_DISABLE();
 8001198:	fab3 f383 	clz	r3, r3
 800119c:	f103 5384 	add.w	r3, r3, #276824064	; 0x10800000
 80011a0:	f503 1384 	add.w	r3, r3, #1081344	; 0x108000
 80011a4:	009b      	lsls	r3, r3, #2
 80011a6:	2200      	movs	r2, #0
 80011a8:	601a      	str	r2, [r3, #0]
        tickstart = HAL_GetTick();
 80011aa:	f7ff fc89 	bl	8000ac0 <HAL_GetTick>
 80011ae:	f04f 7700 	mov.w	r7, #33554432	; 0x2000000
 80011b2:	4680      	mov	r8, r0
        while(__HAL_RCC_GET_FLAG(RCC_FLAG_PLLRDY)  != RESET)
 80011b4:	2601      	movs	r6, #1
 80011b6:	fa97 f3a7 	rbit	r3, r7
 80011ba:	6822      	ldr	r2, [r4, #0]
 80011bc:	fa97 f3a7 	rbit	r3, r7
 80011c0:	fab3 f383 	clz	r3, r3
 80011c4:	f003 031f 	and.w	r3, r3, #31
 80011c8:	fa06 f303 	lsl.w	r3, r6, r3
 80011cc:	4213      	tst	r3, r2
 80011ce:	d133      	bne.n	8001238 <HAL_RCC_OscConfig+0x4a0>
        __HAL_RCC_PLL_CONFIG(RCC_OscInitStruct->PLL.PLLSource,
 80011d0:	6ae3      	ldr	r3, [r4, #44]	; 0x2c
 80011d2:	6a6a      	ldr	r2, [r5, #36]	; 0x24
 80011d4:	f023 030f 	bic.w	r3, r3, #15
 80011d8:	4313      	orrs	r3, r2
 80011da:	62e3      	str	r3, [r4, #44]	; 0x2c
 80011dc:	6862      	ldr	r2, [r4, #4]
 80011de:	6a2b      	ldr	r3, [r5, #32]
 80011e0:	69e9      	ldr	r1, [r5, #28]
 80011e2:	f422 1276 	bic.w	r2, r2, #4030464	; 0x3d8000
 80011e6:	430b      	orrs	r3, r1
 80011e8:	4313      	orrs	r3, r2
 80011ea:	6063      	str	r3, [r4, #4]
 80011ec:	f04f 7380 	mov.w	r3, #16777216	; 0x1000000
 80011f0:	fa93 f3a3 	rbit	r3, r3
        __HAL_RCC_PLL_ENABLE();
 80011f4:	fab3 f383 	clz	r3, r3
 80011f8:	f103 5384 	add.w	r3, r3, #276824064	; 0x10800000
 80011fc:	f503 1384 	add.w	r3, r3, #1081344	; 0x108000
 8001200:	009b      	lsls	r3, r3, #2
 8001202:	f04f 7500 	mov.w	r5, #33554432	; 0x2000000
 8001206:	601e      	str	r6, [r3, #0]
        tickstart = HAL_GetTick();
 8001208:	f7ff fc5a 	bl	8000ac0 <HAL_GetTick>
        while(__HAL_RCC_GET_FLAG(RCC_FLAG_PLLRDY)  == RESET)
 800120c:	2601      	movs	r6, #1
        tickstart = HAL_GetTick();
 800120e:	4607      	mov	r7, r0
 8001210:	fa95 f3a5 	rbit	r3, r5
        while(__HAL_RCC_GET_FLAG(RCC_FLAG_PLLRDY)  == RESET)
 8001214:	6822      	ldr	r2, [r4, #0]
 8001216:	fa95 f3a5 	rbit	r3, r5
 800121a:	fab3 f383 	clz	r3, r3
 800121e:	f003 031f 	and.w	r3, r3, #31
 8001222:	fa06 f303 	lsl.w	r3, r6, r3
 8001226:	4213      	tst	r3, r2
 8001228:	f47f adcc 	bne.w	8000dc4 <HAL_RCC_OscConfig+0x2c>
          if((HAL_GetTick() - tickstart ) > PLL_TIMEOUT_VALUE)
 800122c:	f7ff fc48 	bl	8000ac0 <HAL_GetTick>
 8001230:	1bc0      	subs	r0, r0, r7
 8001232:	2802      	cmp	r0, #2
 8001234:	d9ec      	bls.n	8001210 <HAL_RCC_OscConfig+0x478>
 8001236:	e610      	b.n	8000e5a <HAL_RCC_OscConfig+0xc2>
          if((HAL_GetTick() - tickstart ) > PLL_TIMEOUT_VALUE)
 8001238:	f7ff fc42 	bl	8000ac0 <HAL_GetTick>
 800123c:	eba0 0008 	sub.w	r0, r0, r8
 8001240:	2802      	cmp	r0, #2
 8001242:	d9b8      	bls.n	80011b6 <HAL_RCC_OscConfig+0x41e>
 8001244:	e609      	b.n	8000e5a <HAL_RCC_OscConfig+0xc2>
 8001246:	fa93 f3a3 	rbit	r3, r3
        __HAL_RCC_PLL_DISABLE();
 800124a:	fab3 f383 	clz	r3, r3
 800124e:	f103 5384 	add.w	r3, r3, #276824064	; 0x10800000
 8001252:	f503 1384 	add.w	r3, r3, #1081344	; 0x108000
 8001256:	009b      	lsls	r3, r3, #2
 8001258:	2200      	movs	r2, #0
 800125a:	601a      	str	r2, [r3, #0]
        tickstart = HAL_GetTick();
 800125c:	f7ff fc30 	bl	8000ac0 <HAL_GetTick>
 8001260:	f04f 7500 	mov.w	r5, #33554432	; 0x2000000
 8001264:	4607      	mov	r7, r0
        while(__HAL_RCC_GET_FLAG(RCC_FLAG_PLLRDY)  != RESET)
 8001266:	2601      	movs	r6, #1
 8001268:	fa95 f3a5 	rbit	r3, r5
 800126c:	6822      	ldr	r2, [r4, #0]
 800126e:	fa95 f3a5 	rbit	r3, r5
 8001272:	fab3 f383 	clz	r3, r3
 8001276:	f003 031f 	and.w	r3, r3, #31
 800127a:	fa06 f303 	lsl.w	r3, r6, r3
 800127e:	4213      	tst	r3, r2
 8001280:	f43f ada0 	beq.w	8000dc4 <HAL_RCC_OscConfig+0x2c>
          if((HAL_GetTick() - tickstart ) > PLL_TIMEOUT_VALUE)
 8001284:	f7ff fc1c 	bl	8000ac0 <HAL_GetTick>
 8001288:	1bc0      	subs	r0, r0, r7
 800128a:	2802      	cmp	r0, #2
 800128c:	d9ec      	bls.n	8001268 <HAL_RCC_OscConfig+0x4d0>
 800128e:	e5e4      	b.n	8000e5a <HAL_RCC_OscConfig+0xc2>
 8001290:	40021000 	.word	0x40021000

08001294 <HAL_RCC_GetSysClockFreq>:
uint32_t HAL_RCC_GetSysClockFreq(void)
{
  uint32_t tmpreg = 0U, prediv = 0U, pllclk = 0U, pllmul = 0U;
  uint32_t sysclockfreq = 0U;
  
  tmpreg = RCC->CFGR;
 8001294:	4911      	ldr	r1, [pc, #68]	; (80012dc <HAL_RCC_GetSysClockFreq+0x48>)
 8001296:	684b      	ldr	r3, [r1, #4]
  
  /* Get SYSCLK source -------------------------------------------------------*/
  switch (tmpreg & RCC_CFGR_SWS)
 8001298:	f003 020c 	and.w	r2, r3, #12
 800129c:	2a08      	cmp	r2, #8
 800129e:	d11a      	bne.n	80012d6 <HAL_RCC_GetSysClockFreq+0x42>
 80012a0:	f44f 1270 	mov.w	r2, #3932160	; 0x3c0000
 80012a4:	fa92 f2a2 	rbit	r2, r2
 80012a8:	200f      	movs	r0, #15
      sysclockfreq = HSE_VALUE;
      break;
    }
    case RCC_SYSCLKSOURCE_STATUS_PLLCLK:  /* PLL used as system clock */
    {
      pllmul = aPLLMULFactorTable[(uint32_t)(tmpreg & RCC_CFGR_PLLMUL) >> POSITION_VAL(RCC_CFGR_PLLMUL)];
 80012aa:	fab2 f282 	clz	r2, r2
      prediv = aPredivFactorTable[(uint32_t)(RCC->CFGR2 & RCC_CFGR2_PREDIV) >> POSITION_VAL(RCC_CFGR2_PREDIV)];
 80012ae:	6ac9      	ldr	r1, [r1, #44]	; 0x2c
 80012b0:	fa90 f0a0 	rbit	r0, r0
 80012b4:	fab0 f080 	clz	r0, r0
 80012b8:	f001 010f 	and.w	r1, r1, #15
      pllmul = aPLLMULFactorTable[(uint32_t)(tmpreg & RCC_CFGR_PLLMUL) >> POSITION_VAL(RCC_CFGR_PLLMUL)];
 80012bc:	f403 1370 	and.w	r3, r3, #3932160	; 0x3c0000
 80012c0:	40d3      	lsrs	r3, r2
      prediv = aPredivFactorTable[(uint32_t)(RCC->CFGR2 & RCC_CFGR2_PREDIV) >> POSITION_VAL(RCC_CFGR2_PREDIV)];
 80012c2:	40c1      	lsrs	r1, r0
      pllmul = aPLLMULFactorTable[(uint32_t)(tmpreg & RCC_CFGR_PLLMUL) >> POSITION_VAL(RCC_CFGR_PLLMUL)];
 80012c4:	4a06      	ldr	r2, [pc, #24]	; (80012e0 <HAL_RCC_GetSysClockFreq+0x4c>)
      prediv = aPredivFactorTable[(uint32_t)(RCC->CFGR2 & RCC_CFGR2_PREDIV) >> POSITION_VAL(RCC_CFGR2_PREDIV)];
 80012c6:	4807      	ldr	r0, [pc, #28]	; (80012e4 <HAL_RCC_GetSysClockFreq+0x50>)
 80012c8:	5c41      	ldrb	r1, [r0, r1]
        pllclk = (HSE_VALUE / prediv) * pllmul;
      }
      else
      {
        /* HSI used as PLL clock source : PLLCLK = HSI/PREDIV * PLLMUL */
        pllclk = (HSI_VALUE / prediv) * pllmul;
 80012ca:	4807      	ldr	r0, [pc, #28]	; (80012e8 <HAL_RCC_GetSysClockFreq+0x54>)
 80012cc:	fbb0 f1f1 	udiv	r1, r0, r1
      pllmul = aPLLMULFactorTable[(uint32_t)(tmpreg & RCC_CFGR_PLLMUL) >> POSITION_VAL(RCC_CFGR_PLLMUL)];
 80012d0:	5cd0      	ldrb	r0, [r2, r3]
        pllclk = (HSI_VALUE / prediv) * pllmul;
 80012d2:	4348      	muls	r0, r1
 80012d4:	4770      	bx	lr
      sysclockfreq = HSE_VALUE;
 80012d6:	4804      	ldr	r0, [pc, #16]	; (80012e8 <HAL_RCC_GetSysClockFreq+0x54>)
      sysclockfreq = HSI_VALUE;
      break;
    }
  }
  return sysclockfreq;
}
 80012d8:	4770      	bx	lr
 80012da:	bf00      	nop
 80012dc:	40021000 	.word	0x40021000
 80012e0:	08002e1c 	.word	0x08002e1c
 80012e4:	08002e2c 	.word	0x08002e2c
 80012e8:	007a1200 	.word	0x007a1200

080012ec <HAL_RCC_ClockConfig>:
  if(FLatency > (FLASH->ACR & FLASH_ACR_LATENCY))
 80012ec:	4a5c      	ldr	r2, [pc, #368]	; (8001460 <HAL_RCC_ClockConfig+0x174>)
 80012ee:	6813      	ldr	r3, [r2, #0]
 80012f0:	f003 0307 	and.w	r3, r3, #7
 80012f4:	428b      	cmp	r3, r1
{
 80012f6:	e92d 41f0 	stmdb	sp!, {r4, r5, r6, r7, r8, lr}
 80012fa:	4606      	mov	r6, r0
 80012fc:	460d      	mov	r5, r1
  if(FLatency > (FLASH->ACR & FLASH_ACR_LATENCY))
 80012fe:	d330      	bcc.n	8001362 <HAL_RCC_ClockConfig+0x76>
  if(((RCC_ClkInitStruct->ClockType) & RCC_CLOCKTYPE_HCLK) == RCC_CLOCKTYPE_HCLK)
 8001300:	6832      	ldr	r2, [r6, #0]
 8001302:	0791      	lsls	r1, r2, #30
 8001304:	d43a      	bmi.n	800137c <HAL_RCC_ClockConfig+0x90>
  if(((RCC_ClkInitStruct->ClockType) & RCC_CLOCKTYPE_SYSCLK) == RCC_CLOCKTYPE_SYSCLK)
 8001306:	07d2      	lsls	r2, r2, #31
 8001308:	d440      	bmi.n	800138c <HAL_RCC_ClockConfig+0xa0>
  if(FLatency < (FLASH->ACR & FLASH_ACR_LATENCY))
 800130a:	4a55      	ldr	r2, [pc, #340]	; (8001460 <HAL_RCC_ClockConfig+0x174>)
 800130c:	6813      	ldr	r3, [r2, #0]
 800130e:	f003 0307 	and.w	r3, r3, #7
 8001312:	429d      	cmp	r5, r3
 8001314:	f0c0 8092 	bcc.w	800143c <HAL_RCC_ClockConfig+0x150>
  if(((RCC_ClkInitStruct->ClockType) & RCC_CLOCKTYPE_PCLK1) == RCC_CLOCKTYPE_PCLK1)
 8001318:	6832      	ldr	r2, [r6, #0]
 800131a:	4c52      	ldr	r4, [pc, #328]	; (8001464 <HAL_RCC_ClockConfig+0x178>)
 800131c:	f012 0f04 	tst.w	r2, #4
 8001320:	f040 8097 	bne.w	8001452 <HAL_RCC_ClockConfig+0x166>
  if(((RCC_ClkInitStruct->ClockType) & RCC_CLOCKTYPE_PCLK2) == RCC_CLOCKTYPE_PCLK2)
 8001324:	0713      	lsls	r3, r2, #28
 8001326:	d506      	bpl.n	8001336 <HAL_RCC_ClockConfig+0x4a>
    MODIFY_REG(RCC->CFGR, RCC_CFGR_PPRE2, ((RCC_ClkInitStruct->APB2CLKDivider) << 3U));
 8001328:	6863      	ldr	r3, [r4, #4]
 800132a:	6932      	ldr	r2, [r6, #16]
 800132c:	f423 5360 	bic.w	r3, r3, #14336	; 0x3800
 8001330:	ea43 03c2 	orr.w	r3, r3, r2, lsl #3
 8001334:	6063      	str	r3, [r4, #4]
  SystemCoreClock = HAL_RCC_GetSysClockFreq() >> AHBPrescTable[(RCC->CFGR & RCC_CFGR_HPRE)>> RCC_CFGR_HPRE_BITNUMBER];
 8001336:	f7ff ffad 	bl	8001294 <HAL_RCC_GetSysClockFreq>
 800133a:	6863      	ldr	r3, [r4, #4]
 800133c:	22f0      	movs	r2, #240	; 0xf0
 800133e:	fa92 f2a2 	rbit	r2, r2
 8001342:	fab2 f282 	clz	r2, r2
 8001346:	f003 03f0 	and.w	r3, r3, #240	; 0xf0
 800134a:	40d3      	lsrs	r3, r2
 800134c:	4a46      	ldr	r2, [pc, #280]	; (8001468 <HAL_RCC_ClockConfig+0x17c>)
 800134e:	5cd3      	ldrb	r3, [r2, r3]
 8001350:	40d8      	lsrs	r0, r3
 8001352:	4b46      	ldr	r3, [pc, #280]	; (800146c <HAL_RCC_ClockConfig+0x180>)
 8001354:	6018      	str	r0, [r3, #0]
  HAL_InitTick (TICK_INT_PRIORITY);
 8001356:	2000      	movs	r0, #0
 8001358:	f7ff fb84 	bl	8000a64 <HAL_InitTick>
  return HAL_OK;
 800135c:	2000      	movs	r0, #0
}
 800135e:	e8bd 81f0 	ldmia.w	sp!, {r4, r5, r6, r7, r8, pc}
    __HAL_FLASH_SET_LATENCY(FLatency);
 8001362:	6813      	ldr	r3, [r2, #0]
 8001364:	f023 0307 	bic.w	r3, r3, #7
 8001368:	430b      	orrs	r3, r1
 800136a:	6013      	str	r3, [r2, #0]
    if((FLASH->ACR & FLASH_ACR_LATENCY) != FLatency)
 800136c:	6813      	ldr	r3, [r2, #0]
 800136e:	f003 0307 	and.w	r3, r3, #7
 8001372:	4299      	cmp	r1, r3
 8001374:	d0c4      	beq.n	8001300 <HAL_RCC_ClockConfig+0x14>
      return HAL_ERROR;
 8001376:	2001      	movs	r0, #1
 8001378:	e8bd 81f0 	ldmia.w	sp!, {r4, r5, r6, r7, r8, pc}
    MODIFY_REG(RCC->CFGR, RCC_CFGR_HPRE, RCC_ClkInitStruct->AHBCLKDivider);
 800137c:	4939      	ldr	r1, [pc, #228]	; (8001464 <HAL_RCC_ClockConfig+0x178>)
 800137e:	68b0      	ldr	r0, [r6, #8]
 8001380:	684b      	ldr	r3, [r1, #4]
 8001382:	f023 03f0 	bic.w	r3, r3, #240	; 0xf0
 8001386:	4303      	orrs	r3, r0
 8001388:	604b      	str	r3, [r1, #4]
 800138a:	e7bc      	b.n	8001306 <HAL_RCC_ClockConfig+0x1a>
    if(RCC_ClkInitStruct->SYSCLKSource == RCC_SYSCLKSOURCE_HSE)
 800138c:	6872      	ldr	r2, [r6, #4]
 800138e:	4c35      	ldr	r4, [pc, #212]	; (8001464 <HAL_RCC_ClockConfig+0x178>)
 8001390:	2a01      	cmp	r2, #1
 8001392:	d128      	bne.n	80013e6 <HAL_RCC_ClockConfig+0xfa>
 8001394:	f44f 3300 	mov.w	r3, #131072	; 0x20000
 8001398:	fa93 f1a3 	rbit	r1, r3
      if(__HAL_RCC_GET_FLAG(RCC_FLAG_HSERDY) == RESET)
 800139c:	6821      	ldr	r1, [r4, #0]
 800139e:	fa93 f3a3 	rbit	r3, r3
 80013a2:	fab3 f383 	clz	r3, r3
 80013a6:	f003 031f 	and.w	r3, r3, #31
 80013aa:	fa02 f303 	lsl.w	r3, r2, r3
 80013ae:	420b      	tst	r3, r1
      if(__HAL_RCC_GET_FLAG(RCC_FLAG_HSIRDY) == RESET)
 80013b0:	d0e1      	beq.n	8001376 <HAL_RCC_ClockConfig+0x8a>
    __HAL_RCC_SYSCLK_CONFIG(RCC_ClkInitStruct->SYSCLKSource);
 80013b2:	6863      	ldr	r3, [r4, #4]
 80013b4:	f023 0303 	bic.w	r3, r3, #3
 80013b8:	431a      	orrs	r2, r3
 80013ba:	6062      	str	r2, [r4, #4]
    tickstart = HAL_GetTick();
 80013bc:	f7ff fb80 	bl	8000ac0 <HAL_GetTick>
    if(RCC_ClkInitStruct->SYSCLKSource == RCC_SYSCLKSOURCE_HSE)
 80013c0:	6873      	ldr	r3, [r6, #4]
 80013c2:	2b01      	cmp	r3, #1
    tickstart = HAL_GetTick();
 80013c4:	4607      	mov	r7, r0
        if((HAL_GetTick() - tickstart ) > CLOCKSWITCH_TIMEOUT_VALUE)
 80013c6:	f241 3888 	movw	r8, #5000	; 0x1388
    if(RCC_ClkInitStruct->SYSCLKSource == RCC_SYSCLKSOURCE_HSE)
 80013ca:	d11f      	bne.n	800140c <HAL_RCC_ClockConfig+0x120>
      while (__HAL_RCC_GET_SYSCLK_SOURCE() != RCC_SYSCLKSOURCE_STATUS_HSE)
 80013cc:	6863      	ldr	r3, [r4, #4]
 80013ce:	f003 030c 	and.w	r3, r3, #12
 80013d2:	2b04      	cmp	r3, #4
 80013d4:	d099      	beq.n	800130a <HAL_RCC_ClockConfig+0x1e>
        if((HAL_GetTick() - tickstart ) > CLOCKSWITCH_TIMEOUT_VALUE)
 80013d6:	f7ff fb73 	bl	8000ac0 <HAL_GetTick>
 80013da:	1bc0      	subs	r0, r0, r7
 80013dc:	4540      	cmp	r0, r8
 80013de:	d9f5      	bls.n	80013cc <HAL_RCC_ClockConfig+0xe0>
          return HAL_TIMEOUT;
 80013e0:	2003      	movs	r0, #3
 80013e2:	e8bd 81f0 	ldmia.w	sp!, {r4, r5, r6, r7, r8, pc}
    else if(RCC_ClkInitStruct->SYSCLKSource == RCC_SYSCLKSOURCE_PLLCLK)
 80013e6:	2a02      	cmp	r2, #2
 80013e8:	bf0c      	ite	eq
 80013ea:	f04f 7300 	moveq.w	r3, #33554432	; 0x2000000
 80013ee:	2302      	movne	r3, #2
 80013f0:	fa93 f1a3 	rbit	r1, r3
      if(__HAL_RCC_GET_FLAG(RCC_FLAG_HSIRDY) == RESET)
 80013f4:	6820      	ldr	r0, [r4, #0]
 80013f6:	fa93 f3a3 	rbit	r3, r3
 80013fa:	fab3 f383 	clz	r3, r3
 80013fe:	f003 031f 	and.w	r3, r3, #31
 8001402:	2101      	movs	r1, #1
 8001404:	fa01 f303 	lsl.w	r3, r1, r3
 8001408:	4203      	tst	r3, r0
 800140a:	e7d1      	b.n	80013b0 <HAL_RCC_ClockConfig+0xc4>
    else if(RCC_ClkInitStruct->SYSCLKSource == RCC_SYSCLKSOURCE_PLLCLK)
 800140c:	2b02      	cmp	r3, #2
 800140e:	d110      	bne.n	8001432 <HAL_RCC_ClockConfig+0x146>
      while (__HAL_RCC_GET_SYSCLK_SOURCE() != RCC_SYSCLKSOURCE_STATUS_PLLCLK)
 8001410:	6863      	ldr	r3, [r4, #4]
 8001412:	f003 030c 	and.w	r3, r3, #12
 8001416:	2b08      	cmp	r3, #8
 8001418:	f43f af77 	beq.w	800130a <HAL_RCC_ClockConfig+0x1e>
        if((HAL_GetTick() - tickstart ) > CLOCKSWITCH_TIMEOUT_VALUE)
 800141c:	f7ff fb50 	bl	8000ac0 <HAL_GetTick>
 8001420:	1bc0      	subs	r0, r0, r7
 8001422:	4540      	cmp	r0, r8
 8001424:	d9f4      	bls.n	8001410 <HAL_RCC_ClockConfig+0x124>
 8001426:	e7db      	b.n	80013e0 <HAL_RCC_ClockConfig+0xf4>
        if((HAL_GetTick() - tickstart ) > CLOCKSWITCH_TIMEOUT_VALUE)
 8001428:	f7ff fb4a 	bl	8000ac0 <HAL_GetTick>
 800142c:	1bc0      	subs	r0, r0, r7
 800142e:	4540      	cmp	r0, r8
 8001430:	d8d6      	bhi.n	80013e0 <HAL_RCC_ClockConfig+0xf4>
      while (__HAL_RCC_GET_SYSCLK_SOURCE() != RCC_SYSCLKSOURCE_STATUS_HSI)
 8001432:	6863      	ldr	r3, [r4, #4]
 8001434:	f013 0f0c 	tst.w	r3, #12
 8001438:	d1f6      	bne.n	8001428 <HAL_RCC_ClockConfig+0x13c>
 800143a:	e766      	b.n	800130a <HAL_RCC_ClockConfig+0x1e>
    __HAL_FLASH_SET_LATENCY(FLatency);
 800143c:	6813      	ldr	r3, [r2, #0]
 800143e:	f023 0307 	bic.w	r3, r3, #7
 8001442:	432b      	orrs	r3, r5
 8001444:	6013      	str	r3, [r2, #0]
    if((FLASH->ACR & FLASH_ACR_LATENCY) != FLatency)
 8001446:	6813      	ldr	r3, [r2, #0]
 8001448:	f003 0307 	and.w	r3, r3, #7
 800144c:	429d      	cmp	r5, r3
 800144e:	d192      	bne.n	8001376 <HAL_RCC_ClockConfig+0x8a>
 8001450:	e762      	b.n	8001318 <HAL_RCC_ClockConfig+0x2c>
    MODIFY_REG(RCC->CFGR, RCC_CFGR_PPRE1, RCC_ClkInitStruct->APB1CLKDivider);
 8001452:	6863      	ldr	r3, [r4, #4]
 8001454:	68f1      	ldr	r1, [r6, #12]
 8001456:	f423 63e0 	bic.w	r3, r3, #1792	; 0x700
 800145a:	430b      	orrs	r3, r1
 800145c:	6063      	str	r3, [r4, #4]
 800145e:	e761      	b.n	8001324 <HAL_RCC_ClockConfig+0x38>
 8001460:	40022000 	.word	0x40022000
 8001464:	40021000 	.word	0x40021000
 8001468:	08002e4f 	.word	0x08002e4f
 800146c:	20000000 	.word	0x20000000

08001470 <HAL_RCC_GetHCLKFreq>:
  * @retval HCLK frequency
  */
uint32_t HAL_RCC_GetHCLKFreq(void)
{
  return SystemCoreClock;
}
 8001470:	4b01      	ldr	r3, [pc, #4]	; (8001478 <HAL_RCC_GetHCLKFreq+0x8>)
 8001472:	6818      	ldr	r0, [r3, #0]
 8001474:	4770      	bx	lr
 8001476:	bf00      	nop
 8001478:	20000000 	.word	0x20000000

0800147c <HAL_RCC_GetPCLK1Freq>:
  * @retval PCLK1 frequency
  */
uint32_t HAL_RCC_GetPCLK1Freq(void)
{
  /* Get HCLK source and Compute PCLK1 frequency ---------------------------*/
  return (HAL_RCC_GetHCLKFreq() >> APBPrescTable[(RCC->CFGR & RCC_CFGR_PPRE1) >> RCC_CFGR_PPRE1_BITNUMBER]);
 800147c:	4b08      	ldr	r3, [pc, #32]	; (80014a0 <HAL_RCC_GetPCLK1Freq+0x24>)
 800147e:	f44f 62e0 	mov.w	r2, #1792	; 0x700
 8001482:	685b      	ldr	r3, [r3, #4]
 8001484:	fa92 f2a2 	rbit	r2, r2
 8001488:	fab2 f282 	clz	r2, r2
 800148c:	f403 63e0 	and.w	r3, r3, #1792	; 0x700
 8001490:	40d3      	lsrs	r3, r2
 8001492:	4a04      	ldr	r2, [pc, #16]	; (80014a4 <HAL_RCC_GetPCLK1Freq+0x28>)
 8001494:	5cd3      	ldrb	r3, [r2, r3]
 8001496:	4a04      	ldr	r2, [pc, #16]	; (80014a8 <HAL_RCC_GetPCLK1Freq+0x2c>)
 8001498:	6810      	ldr	r0, [r2, #0]
}    
 800149a:	40d8      	lsrs	r0, r3
 800149c:	4770      	bx	lr
 800149e:	bf00      	nop
 80014a0:	40021000 	.word	0x40021000
 80014a4:	08002e5f 	.word	0x08002e5f
 80014a8:	20000000 	.word	0x20000000

080014ac <HAL_RCC_GetPCLK2Freq>:
  * @retval PCLK2 frequency
  */
uint32_t HAL_RCC_GetPCLK2Freq(void)
{
  /* Get HCLK source and Compute PCLK2 frequency ---------------------------*/
  return (HAL_RCC_GetHCLKFreq()>> APBPrescTable[(RCC->CFGR & RCC_CFGR_PPRE2) >> RCC_CFGR_PPRE2_BITNUMBER]);
 80014ac:	4b08      	ldr	r3, [pc, #32]	; (80014d0 <HAL_RCC_GetPCLK2Freq+0x24>)
 80014ae:	f44f 5260 	mov.w	r2, #14336	; 0x3800
 80014b2:	685b      	ldr	r3, [r3, #4]
 80014b4:	fa92 f2a2 	rbit	r2, r2
 80014b8:	fab2 f282 	clz	r2, r2
 80014bc:	f403 5360 	and.w	r3, r3, #14336	; 0x3800
 80014c0:	40d3      	lsrs	r3, r2
 80014c2:	4a04      	ldr	r2, [pc, #16]	; (80014d4 <HAL_RCC_GetPCLK2Freq+0x28>)
 80014c4:	5cd3      	ldrb	r3, [r2, r3]
 80014c6:	4a04      	ldr	r2, [pc, #16]	; (80014d8 <HAL_RCC_GetPCLK2Freq+0x2c>)
 80014c8:	6810      	ldr	r0, [r2, #0]
} 
 80014ca:	40d8      	lsrs	r0, r3
 80014cc:	4770      	bx	lr
 80014ce:	bf00      	nop
 80014d0:	40021000 	.word	0x40021000
 80014d4:	08002e5f 	.word	0x08002e5f
 80014d8:	20000000 	.word	0x20000000

080014dc <HAL_RCCEx_PeriphCLKConfig>:
    
  /* Check the parameters */
  assert_param(IS_RCC_PERIPHCLOCK(PeriphClkInit->PeriphClockSelection));
  
  /*---------------------------- RTC configuration -------------------------------*/
  if(((PeriphClkInit->PeriphClockSelection) & RCC_PERIPHCLK_RTC) == (RCC_PERIPHCLK_RTC))
 80014dc:	6803      	ldr	r3, [r0, #0]
{
 80014de:	e92d 47f3 	stmdb	sp!, {r0, r1, r4, r5, r6, r7, r8, r9, sl, lr}
  if(((PeriphClkInit->PeriphClockSelection) & RCC_PERIPHCLK_RTC) == (RCC_PERIPHCLK_RTC))
 80014e2:	03df      	lsls	r7, r3, #15
{
 80014e4:	4604      	mov	r4, r0
  if(((PeriphClkInit->PeriphClockSelection) & RCC_PERIPHCLK_RTC) == (RCC_PERIPHCLK_RTC))
 80014e6:	d523      	bpl.n	8001530 <HAL_RCCEx_PeriphCLKConfig+0x54>
    FlagStatus       pwrclkchanged = RESET;

    /* As soon as function is called to change RTC clock source, activation of the 
       power domain is done. */
    /* Requires to enable write access to Backup Domain of necessary */
    if(__HAL_RCC_PWR_IS_CLK_DISABLED())
 80014e8:	4d9b      	ldr	r5, [pc, #620]	; (8001758 <HAL_RCCEx_PeriphCLKConfig+0x27c>)
 80014ea:	69eb      	ldr	r3, [r5, #28]
 80014ec:	00de      	lsls	r6, r3, #3
 80014ee:	f100 80d7 	bmi.w	80016a0 <HAL_RCCEx_PeriphCLKConfig+0x1c4>
    {
      __HAL_RCC_PWR_CLK_ENABLE();
 80014f2:	69eb      	ldr	r3, [r5, #28]
 80014f4:	f043 5380 	orr.w	r3, r3, #268435456	; 0x10000000
 80014f8:	61eb      	str	r3, [r5, #28]
 80014fa:	69eb      	ldr	r3, [r5, #28]
 80014fc:	f003 5380 	and.w	r3, r3, #268435456	; 0x10000000
 8001500:	9301      	str	r3, [sp, #4]
 8001502:	9b01      	ldr	r3, [sp, #4]
      pwrclkchanged = SET;
 8001504:	2601      	movs	r6, #1
    }
    
    if(HAL_IS_BIT_CLR(PWR->CR, PWR_CR_DBP))
 8001506:	4f95      	ldr	r7, [pc, #596]	; (800175c <HAL_RCCEx_PeriphCLKConfig+0x280>)
 8001508:	683b      	ldr	r3, [r7, #0]
 800150a:	05d8      	lsls	r0, r3, #23
 800150c:	f140 80ca 	bpl.w	80016a4 <HAL_RCCEx_PeriphCLKConfig+0x1c8>
        }
      }
    }
    
    /* Reset the Backup domain only if the RTC Clock source selection is modified from reset value */ 
    temp_reg = (RCC->BDCR & RCC_BDCR_RTCSEL);
 8001510:	6a2b      	ldr	r3, [r5, #32]
    if((temp_reg != 0x00000000U) && (temp_reg != (PeriphClkInit->RTCClockSelection & RCC_BDCR_RTCSEL)))
 8001512:	f413 7340 	ands.w	r3, r3, #768	; 0x300
 8001516:	f040 80da 	bne.w	80016ce <HAL_RCCEx_PeriphCLKConfig+0x1f2>
            return HAL_TIMEOUT;
          }      
        }  
      }
    }
    __HAL_RCC_RTC_CONFIG(PeriphClkInit->RTCClockSelection); 
 800151a:	6a2b      	ldr	r3, [r5, #32]
 800151c:	6862      	ldr	r2, [r4, #4]
 800151e:	f423 7340 	bic.w	r3, r3, #768	; 0x300
 8001522:	4313      	orrs	r3, r2
 8001524:	622b      	str	r3, [r5, #32]

    /* Require to disable power clock if necessary */
    if(pwrclkchanged == SET)
 8001526:	b11e      	cbz	r6, 8001530 <HAL_RCCEx_PeriphCLKConfig+0x54>
    {
      __HAL_RCC_PWR_CLK_DISABLE();
 8001528:	69eb      	ldr	r3, [r5, #28]
 800152a:	f023 5380 	bic.w	r3, r3, #268435456	; 0x10000000
 800152e:	61eb      	str	r3, [r5, #28]
    }
  }

  /*------------------------------- USART1 Configuration ------------------------*/
  if(((PeriphClkInit->PeriphClockSelection) & RCC_PERIPHCLK_USART1) == RCC_PERIPHCLK_USART1)
 8001530:	6820      	ldr	r0, [r4, #0]
 8001532:	07c3      	lsls	r3, r0, #31
 8001534:	d506      	bpl.n	8001544 <HAL_RCCEx_PeriphCLKConfig+0x68>
  {
    /* Check the parameters */
    assert_param(IS_RCC_USART1CLKSOURCE(PeriphClkInit->Usart1ClockSelection));
    
    /* Configure the USART1 clock source */
    __HAL_RCC_USART1_CONFIG(PeriphClkInit->Usart1ClockSelection);
 8001536:	4a88      	ldr	r2, [pc, #544]	; (8001758 <HAL_RCCEx_PeriphCLKConfig+0x27c>)
 8001538:	68a1      	ldr	r1, [r4, #8]
 800153a:	6b13      	ldr	r3, [r2, #48]	; 0x30
 800153c:	f023 0303 	bic.w	r3, r3, #3
 8001540:	430b      	orrs	r3, r1
 8001542:	6313      	str	r3, [r2, #48]	; 0x30
  }

#if defined(RCC_CFGR3_USART2SW)
  /*----------------------------- USART2 Configuration --------------------------*/ 
  if(((PeriphClkInit->PeriphClockSelection) & RCC_PERIPHCLK_USART2) == RCC_PERIPHCLK_USART2)
 8001544:	0787      	lsls	r7, r0, #30
 8001546:	d506      	bpl.n	8001556 <HAL_RCCEx_PeriphCLKConfig+0x7a>
  {
    /* Check the parameters */
    assert_param(IS_RCC_USART2CLKSOURCE(PeriphClkInit->Usart2ClockSelection));
    
    /* Configure the USART2 clock source */
    __HAL_RCC_USART2_CONFIG(PeriphClkInit->Usart2ClockSelection);
 8001548:	4a83      	ldr	r2, [pc, #524]	; (8001758 <HAL_RCCEx_PeriphCLKConfig+0x27c>)
 800154a:	68e1      	ldr	r1, [r4, #12]
 800154c:	6b13      	ldr	r3, [r2, #48]	; 0x30
 800154e:	f423 3340 	bic.w	r3, r3, #196608	; 0x30000
 8001552:	430b      	orrs	r3, r1
 8001554:	6313      	str	r3, [r2, #48]	; 0x30
  }
#endif /* RCC_CFGR3_USART2SW */

#if defined(RCC_CFGR3_USART3SW)
  /*------------------------------ USART3 Configuration ------------------------*/ 
  if(((PeriphClkInit->PeriphClockSelection) & RCC_PERIPHCLK_USART3) == RCC_PERIPHCLK_USART3)
 8001556:	0746      	lsls	r6, r0, #29
 8001558:	d506      	bpl.n	8001568 <HAL_RCCEx_PeriphCLKConfig+0x8c>
  {
    /* Check the parameters */
    assert_param(IS_RCC_USART3CLKSOURCE(PeriphClkInit->Usart3ClockSelection));
    
    /* Configure the USART3 clock source */
    __HAL_RCC_USART3_CONFIG(PeriphClkInit->Usart3ClockSelection);
 800155a:	4a7f      	ldr	r2, [pc, #508]	; (8001758 <HAL_RCCEx_PeriphCLKConfig+0x27c>)
 800155c:	6921      	ldr	r1, [r4, #16]
 800155e:	6b13      	ldr	r3, [r2, #48]	; 0x30
 8001560:	f423 2340 	bic.w	r3, r3, #786432	; 0xc0000
 8001564:	430b      	orrs	r3, r1
 8001566:	6313      	str	r3, [r2, #48]	; 0x30
  }
#endif /* RCC_CFGR3_USART3SW */

  /*------------------------------ I2C1 Configuration ------------------------*/ 
  if(((PeriphClkInit->PeriphClockSelection) & RCC_PERIPHCLK_I2C1) == RCC_PERIPHCLK_I2C1)
 8001568:	0685      	lsls	r5, r0, #26
 800156a:	d506      	bpl.n	800157a <HAL_RCCEx_PeriphCLKConfig+0x9e>
  {
    /* Check the parameters */
    assert_param(IS_RCC_I2C1CLKSOURCE(PeriphClkInit->I2c1ClockSelection));
    
    /* Configure the I2C1 clock source */
    __HAL_RCC_I2C1_CONFIG(PeriphClkInit->I2c1ClockSelection);
 800156c:	4a7a      	ldr	r2, [pc, #488]	; (8001758 <HAL_RCCEx_PeriphCLKConfig+0x27c>)
 800156e:	69e1      	ldr	r1, [r4, #28]
 8001570:	6b13      	ldr	r3, [r2, #48]	; 0x30
 8001572:	f023 0310 	bic.w	r3, r3, #16
 8001576:	430b      	orrs	r3, r1
 8001578:	6313      	str	r3, [r2, #48]	; 0x30
#if defined(STM32F302xE) || defined(STM32F303xE)\
 || defined(STM32F302xC) || defined(STM32F303xC)\
 || defined(STM32F302x8)                        \
 || defined(STM32F373xC)
  /*------------------------------ USB Configuration ------------------------*/ 
  if(((PeriphClkInit->PeriphClockSelection) & RCC_PERIPHCLK_USB) == RCC_PERIPHCLK_USB)
 800157a:	0381      	lsls	r1, r0, #14
 800157c:	d506      	bpl.n	800158c <HAL_RCCEx_PeriphCLKConfig+0xb0>
  {
    /* Check the parameters */
    assert_param(IS_RCC_USBCLKSOURCE(PeriphClkInit->USBClockSelection));
    
    /* Configure the USB clock source */
    __HAL_RCC_USB_CONFIG(PeriphClkInit->USBClockSelection);
 800157e:	4a76      	ldr	r2, [pc, #472]	; (8001758 <HAL_RCCEx_PeriphCLKConfig+0x27c>)
 8001580:	6d61      	ldr	r1, [r4, #84]	; 0x54
 8001582:	6853      	ldr	r3, [r2, #4]
 8001584:	f423 0380 	bic.w	r3, r3, #4194304	; 0x400000
 8001588:	430b      	orrs	r3, r1
 800158a:	6053      	str	r3, [r2, #4]
 || defined(STM32F302xC) || defined(STM32F303xC) || defined(STM32F358xx)\
 || defined(STM32F301x8) || defined(STM32F302x8) || defined(STM32F318xx)\
 || defined(STM32F373xC) || defined(STM32F378xx)

  /*------------------------------ I2C2 Configuration ------------------------*/ 
  if(((PeriphClkInit->PeriphClockSelection) & RCC_PERIPHCLK_I2C2) == RCC_PERIPHCLK_I2C2)
 800158c:	0642      	lsls	r2, r0, #25
 800158e:	d506      	bpl.n	800159e <HAL_RCCEx_PeriphCLKConfig+0xc2>
  {
    /* Check the parameters */
    assert_param(IS_RCC_I2C2CLKSOURCE(PeriphClkInit->I2c2ClockSelection));
    
    /* Configure the I2C2 clock source */
    __HAL_RCC_I2C2_CONFIG(PeriphClkInit->I2c2ClockSelection);
 8001590:	4a71      	ldr	r2, [pc, #452]	; (8001758 <HAL_RCCEx_PeriphCLKConfig+0x27c>)
 8001592:	6a21      	ldr	r1, [r4, #32]
 8001594:	6b13      	ldr	r3, [r2, #48]	; 0x30
 8001596:	f023 0320 	bic.w	r3, r3, #32
 800159a:	430b      	orrs	r3, r1
 800159c:	6313      	str	r3, [r2, #48]	; 0x30
  
#if defined(STM32F302xE) || defined(STM32F303xE) || defined(STM32F398xx)\
 || defined(STM32F301x8) || defined(STM32F302x8) || defined(STM32F318xx)

  /*------------------------------ I2C3 Configuration ------------------------*/ 
  if(((PeriphClkInit->PeriphClockSelection) & RCC_PERIPHCLK_I2C3) == RCC_PERIPHCLK_I2C3)
 800159e:	0343      	lsls	r3, r0, #13
 80015a0:	d506      	bpl.n	80015b0 <HAL_RCCEx_PeriphCLKConfig+0xd4>
  {
    /* Check the parameters */
    assert_param(IS_RCC_I2C3CLKSOURCE(PeriphClkInit->I2c3ClockSelection));
    
    /* Configure the I2C3 clock source */
    __HAL_RCC_I2C3_CONFIG(PeriphClkInit->I2c3ClockSelection);
 80015a2:	4a6d      	ldr	r2, [pc, #436]	; (8001758 <HAL_RCCEx_PeriphCLKConfig+0x27c>)
 80015a4:	6a61      	ldr	r1, [r4, #36]	; 0x24
 80015a6:	6b13      	ldr	r3, [r2, #48]	; 0x30
 80015a8:	f023 0340 	bic.w	r3, r3, #64	; 0x40
 80015ac:	430b      	orrs	r3, r1
 80015ae:	6313      	str	r3, [r2, #48]	; 0x30
  
#if defined(STM32F302xE) || defined(STM32F303xE) || defined(STM32F398xx)\
 || defined(STM32F302xC) || defined(STM32F303xC) || defined(STM32F358xx)

  /*------------------------------ UART4 Configuration ------------------------*/ 
  if(((PeriphClkInit->PeriphClockSelection) & RCC_PERIPHCLK_UART4) == RCC_PERIPHCLK_UART4)
 80015b0:	0707      	lsls	r7, r0, #28
 80015b2:	d506      	bpl.n	80015c2 <HAL_RCCEx_PeriphCLKConfig+0xe6>
  {
    /* Check the parameters */
    assert_param(IS_RCC_UART4CLKSOURCE(PeriphClkInit->Uart4ClockSelection));
    
    /* Configure the UART4 clock source */
    __HAL_RCC_UART4_CONFIG(PeriphClkInit->Uart4ClockSelection);
 80015b4:	4a68      	ldr	r2, [pc, #416]	; (8001758 <HAL_RCCEx_PeriphCLKConfig+0x27c>)
 80015b6:	6961      	ldr	r1, [r4, #20]
 80015b8:	6b13      	ldr	r3, [r2, #48]	; 0x30
 80015ba:	f423 1340 	bic.w	r3, r3, #3145728	; 0x300000
 80015be:	430b      	orrs	r3, r1
 80015c0:	6313      	str	r3, [r2, #48]	; 0x30
  }

  /*------------------------------ UART5 Configuration ------------------------*/ 
  if(((PeriphClkInit->PeriphClockSelection) & RCC_PERIPHCLK_UART5) == RCC_PERIPHCLK_UART5)
 80015c2:	06c6      	lsls	r6, r0, #27
 80015c4:	d506      	bpl.n	80015d4 <HAL_RCCEx_PeriphCLKConfig+0xf8>
  {
    /* Check the parameters */
    assert_param(IS_RCC_UART5CLKSOURCE(PeriphClkInit->Uart5ClockSelection));
    
    /* Configure the UART5 clock source */
    __HAL_RCC_UART5_CONFIG(PeriphClkInit->Uart5ClockSelection);
 80015c6:	4a64      	ldr	r2, [pc, #400]	; (8001758 <HAL_RCCEx_PeriphCLKConfig+0x27c>)
 80015c8:	69a1      	ldr	r1, [r4, #24]
 80015ca:	6b13      	ldr	r3, [r2, #48]	; 0x30
 80015cc:	f423 0340 	bic.w	r3, r3, #12582912	; 0xc00000
 80015d0:	430b      	orrs	r3, r1
 80015d2:	6313      	str	r3, [r2, #48]	; 0x30

#if defined(STM32F302xE) || defined(STM32F303xE) || defined(STM32F398xx)\
 || defined(STM32F302xC) || defined(STM32F303xC) || defined(STM32F358xx)\
 || defined(STM32F301x8) || defined(STM32F302x8) || defined(STM32F318xx)
  /*------------------------------ I2S Configuration ------------------------*/ 
  if(((PeriphClkInit->PeriphClockSelection) & RCC_PERIPHCLK_I2S) == RCC_PERIPHCLK_I2S)
 80015d4:	0585      	lsls	r5, r0, #22
 80015d6:	d506      	bpl.n	80015e6 <HAL_RCCEx_PeriphCLKConfig+0x10a>
  {
    /* Check the parameters */
    assert_param(IS_RCC_I2SCLKSOURCE(PeriphClkInit->I2sClockSelection));
    
    /* Configure the I2S clock source */
    __HAL_RCC_I2S_CONFIG(PeriphClkInit->I2sClockSelection);
 80015d8:	4a5f      	ldr	r2, [pc, #380]	; (8001758 <HAL_RCCEx_PeriphCLKConfig+0x27c>)
 80015da:	6b21      	ldr	r1, [r4, #48]	; 0x30
 80015dc:	6853      	ldr	r3, [r2, #4]
 80015de:	f423 0300 	bic.w	r3, r3, #8388608	; 0x800000
 80015e2:	430b      	orrs	r3, r1
 80015e4:	6053      	str	r3, [r2, #4]
#if defined(STM32F302xE) || defined(STM32F303xE) || defined(STM32F398xx)\
 || defined(STM32F302xC) || defined(STM32F303xC) || defined(STM32F358xx)\
 || defined(STM32F303x8) || defined(STM32F334x8) || defined(STM32F328xx)
      
  /*------------------------------ ADC1 & ADC2 clock Configuration -------------*/ 
  if(((PeriphClkInit->PeriphClockSelection) & RCC_PERIPHCLK_ADC12) == RCC_PERIPHCLK_ADC12)
 80015e6:	0601      	lsls	r1, r0, #24
 80015e8:	d506      	bpl.n	80015f8 <HAL_RCCEx_PeriphCLKConfig+0x11c>
  {
    /* Check the parameters */
    assert_param(IS_RCC_ADC12PLLCLK_DIV(PeriphClkInit->Adc12ClockSelection));
    
    /* Configure the ADC12 clock source */
    __HAL_RCC_ADC12_CONFIG(PeriphClkInit->Adc12ClockSelection);
 80015ea:	4a5b      	ldr	r2, [pc, #364]	; (8001758 <HAL_RCCEx_PeriphCLKConfig+0x27c>)
 80015ec:	6aa1      	ldr	r1, [r4, #40]	; 0x28
 80015ee:	6ad3      	ldr	r3, [r2, #44]	; 0x2c
 80015f0:	f423 73f8 	bic.w	r3, r3, #496	; 0x1f0
 80015f4:	430b      	orrs	r3, r1
 80015f6:	62d3      	str	r3, [r2, #44]	; 0x2c
  
#if defined(STM32F303xE) || defined(STM32F398xx)\
 || defined(STM32F303xC) || defined(STM32F358xx)

  /*------------------------------ ADC3 & ADC4 clock Configuration -------------*/ 
  if(((PeriphClkInit->PeriphClockSelection) & RCC_PERIPHCLK_ADC34) == RCC_PERIPHCLK_ADC34)
 80015f8:	05c2      	lsls	r2, r0, #23
 80015fa:	d506      	bpl.n	800160a <HAL_RCCEx_PeriphCLKConfig+0x12e>
  {
    /* Check the parameters */
    assert_param(IS_RCC_ADC34PLLCLK_DIV(PeriphClkInit->Adc34ClockSelection));
    
    /* Configure the ADC34 clock source */
    __HAL_RCC_ADC34_CONFIG(PeriphClkInit->Adc34ClockSelection);
 80015fc:	4a56      	ldr	r2, [pc, #344]	; (8001758 <HAL_RCCEx_PeriphCLKConfig+0x27c>)
 80015fe:	6ae1      	ldr	r1, [r4, #44]	; 0x2c
 8001600:	6ad3      	ldr	r3, [r2, #44]	; 0x2c
 8001602:	f423 5378 	bic.w	r3, r3, #15872	; 0x3e00
 8001606:	430b      	orrs	r3, r1
 8001608:	62d3      	str	r3, [r2, #44]	; 0x2c
 || defined(STM32F302xC) || defined(STM32F303xC) || defined(STM32F358xx)\
 || defined(STM32F303x8) || defined(STM32F334x8) || defined(STM32F328xx)\
 || defined(STM32F301x8) || defined(STM32F302x8) || defined(STM32F318xx)

  /*------------------------------ TIM1 clock Configuration ----------------*/ 
  if(((PeriphClkInit->PeriphClockSelection) & RCC_PERIPHCLK_TIM1) == RCC_PERIPHCLK_TIM1)
 800160a:	04c3      	lsls	r3, r0, #19
 800160c:	d506      	bpl.n	800161c <HAL_RCCEx_PeriphCLKConfig+0x140>
  {
    /* Check the parameters */
    assert_param(IS_RCC_TIM1CLKSOURCE(PeriphClkInit->Tim1ClockSelection));
    
    /* Configure the TIM1 clock source */
    __HAL_RCC_TIM1_CONFIG(PeriphClkInit->Tim1ClockSelection);
 800160e:	4a52      	ldr	r2, [pc, #328]	; (8001758 <HAL_RCCEx_PeriphCLKConfig+0x27c>)
 8001610:	6b61      	ldr	r1, [r4, #52]	; 0x34
 8001612:	6b13      	ldr	r3, [r2, #48]	; 0x30
 8001614:	f423 7380 	bic.w	r3, r3, #256	; 0x100
 8001618:	430b      	orrs	r3, r1
 800161a:	6313      	str	r3, [r2, #48]	; 0x30
  
#if defined(STM32F303xE) || defined(STM32F398xx)\
 || defined(STM32F303xC) || defined(STM32F358xx)

  /*------------------------------ TIM8 clock Configuration ----------------*/ 
  if(((PeriphClkInit->PeriphClockSelection) & RCC_PERIPHCLK_TIM8) == RCC_PERIPHCLK_TIM8)
 800161c:	0487      	lsls	r7, r0, #18
 800161e:	d506      	bpl.n	800162e <HAL_RCCEx_PeriphCLKConfig+0x152>
  {
    /* Check the parameters */
    assert_param(IS_RCC_TIM8CLKSOURCE(PeriphClkInit->Tim8ClockSelection));
    
    /* Configure the TIM8 clock source */
    __HAL_RCC_TIM8_CONFIG(PeriphClkInit->Tim8ClockSelection);
 8001620:	4a4d      	ldr	r2, [pc, #308]	; (8001758 <HAL_RCCEx_PeriphCLKConfig+0x27c>)
 8001622:	6c21      	ldr	r1, [r4, #64]	; 0x40
 8001624:	6b13      	ldr	r3, [r2, #48]	; 0x30
 8001626:	f423 7300 	bic.w	r3, r3, #512	; 0x200
 800162a:	430b      	orrs	r3, r1
 800162c:	6313      	str	r3, [r2, #48]	; 0x30
#endif /* STM32F373xC || STM32F378xx */
  
#if defined(STM32F302xE) || defined(STM32F303xE) || defined(STM32F398xx)
  
  /*------------------------------ TIM2 clock Configuration -------------------*/ 
  if(((PeriphClkInit->PeriphClockSelection) & RCC_PERIPHCLK_TIM2) == RCC_PERIPHCLK_TIM2)
 800162e:	02c6      	lsls	r6, r0, #11
 8001630:	d506      	bpl.n	8001640 <HAL_RCCEx_PeriphCLKConfig+0x164>
  {
    /* Check the parameters */
    assert_param(IS_RCC_TIM2CLKSOURCE(PeriphClkInit->Tim2ClockSelection));
    
    /* Configure the CEC clock source */
    __HAL_RCC_TIM2_CONFIG(PeriphClkInit->Tim2ClockSelection);
 8001632:	4a49      	ldr	r2, [pc, #292]	; (8001758 <HAL_RCCEx_PeriphCLKConfig+0x27c>)
 8001634:	6ba1      	ldr	r1, [r4, #56]	; 0x38
 8001636:	6b13      	ldr	r3, [r2, #48]	; 0x30
 8001638:	f023 7380 	bic.w	r3, r3, #16777216	; 0x1000000
 800163c:	430b      	orrs	r3, r1
 800163e:	6313      	str	r3, [r2, #48]	; 0x30
  }

  /*------------------------------ TIM3 clock Configuration -------------------*/ 
  if(((PeriphClkInit->PeriphClockSelection) & RCC_PERIPHCLK_TIM34) == RCC_PERIPHCLK_TIM34)
 8001640:	0285      	lsls	r5, r0, #10
 8001642:	d506      	bpl.n	8001652 <HAL_RCCEx_PeriphCLKConfig+0x176>
  {
    /* Check the parameters */
    assert_param(IS_RCC_TIM3CLKSOURCE(PeriphClkInit->Tim34ClockSelection));
    
    /* Configure the CEC clock source */
    __HAL_RCC_TIM34_CONFIG(PeriphClkInit->Tim34ClockSelection);
 8001644:	4a44      	ldr	r2, [pc, #272]	; (8001758 <HAL_RCCEx_PeriphCLKConfig+0x27c>)
 8001646:	6be1      	ldr	r1, [r4, #60]	; 0x3c
 8001648:	6b13      	ldr	r3, [r2, #48]	; 0x30
 800164a:	f023 7300 	bic.w	r3, r3, #33554432	; 0x2000000
 800164e:	430b      	orrs	r3, r1
 8001650:	6313      	str	r3, [r2, #48]	; 0x30
  }

  /*------------------------------ TIM15 clock Configuration ------------------*/ 
  if(((PeriphClkInit->PeriphClockSelection) & RCC_PERIPHCLK_TIM15) == RCC_PERIPHCLK_TIM15)
 8001652:	0241      	lsls	r1, r0, #9
 8001654:	d506      	bpl.n	8001664 <HAL_RCCEx_PeriphCLKConfig+0x188>
  {
    /* Check the parameters */
    assert_param(IS_RCC_TIM15CLKSOURCE(PeriphClkInit->Tim15ClockSelection));
    
    /* Configure the CEC clock source */
    __HAL_RCC_TIM15_CONFIG(PeriphClkInit->Tim15ClockSelection);
 8001656:	4a40      	ldr	r2, [pc, #256]	; (8001758 <HAL_RCCEx_PeriphCLKConfig+0x27c>)
 8001658:	6c61      	ldr	r1, [r4, #68]	; 0x44
 800165a:	6b13      	ldr	r3, [r2, #48]	; 0x30
 800165c:	f423 6380 	bic.w	r3, r3, #1024	; 0x400
 8001660:	430b      	orrs	r3, r1
 8001662:	6313      	str	r3, [r2, #48]	; 0x30
  }

  /*------------------------------ TIM16 clock Configuration ------------------*/ 
  if(((PeriphClkInit->PeriphClockSelection) & RCC_PERIPHCLK_TIM16) == RCC_PERIPHCLK_TIM16)
 8001664:	0202      	lsls	r2, r0, #8
 8001666:	d506      	bpl.n	8001676 <HAL_RCCEx_PeriphCLKConfig+0x19a>
  {
    /* Check the parameters */
    assert_param(IS_RCC_TIM16CLKSOURCE(PeriphClkInit->Tim16ClockSelection));
    
    /* Configure the CEC clock source */
    __HAL_RCC_TIM16_CONFIG(PeriphClkInit->Tim16ClockSelection);
 8001668:	4a3b      	ldr	r2, [pc, #236]	; (8001758 <HAL_RCCEx_PeriphCLKConfig+0x27c>)
 800166a:	6ca1      	ldr	r1, [r4, #72]	; 0x48
 800166c:	6b13      	ldr	r3, [r2, #48]	; 0x30
 800166e:	f423 6300 	bic.w	r3, r3, #2048	; 0x800
 8001672:	430b      	orrs	r3, r1
 8001674:	6313      	str	r3, [r2, #48]	; 0x30
  }

  /*------------------------------ TIM17 clock Configuration ------------------*/ 
  if(((PeriphClkInit->PeriphClockSelection) & RCC_PERIPHCLK_TIM17) == RCC_PERIPHCLK_TIM17)
 8001676:	01c3      	lsls	r3, r0, #7
 8001678:	d506      	bpl.n	8001688 <HAL_RCCEx_PeriphCLKConfig+0x1ac>
  {
    /* Check the parameters */
    assert_param(IS_RCC_TIM17CLKSOURCE(PeriphClkInit->Tim17ClockSelection));
    
    /* Configure the CEC clock source */
    __HAL_RCC_TIM17_CONFIG(PeriphClkInit->Tim17ClockSelection);
 800167a:	4a37      	ldr	r2, [pc, #220]	; (8001758 <HAL_RCCEx_PeriphCLKConfig+0x27c>)
 800167c:	6ce1      	ldr	r1, [r4, #76]	; 0x4c
 800167e:	6b13      	ldr	r3, [r2, #48]	; 0x30
 8001680:	f423 5300 	bic.w	r3, r3, #8192	; 0x2000
 8001684:	430b      	orrs	r3, r1
 8001686:	6313      	str	r3, [r2, #48]	; 0x30

#endif /* STM32F302xE || STM32F303xE || STM32F398xx */  

#if defined(STM32F303xE) || defined(STM32F398xx)
  /*------------------------------ TIM20 clock Configuration ------------------*/ 
  if(((PeriphClkInit->PeriphClockSelection) & RCC_PERIPHCLK_TIM20) == RCC_PERIPHCLK_TIM20)
 8001688:	f010 7000 	ands.w	r0, r0, #33554432	; 0x2000000
 800168c:	d01c      	beq.n	80016c8 <HAL_RCCEx_PeriphCLKConfig+0x1ec>
  {
    /* Check the parameters */
    assert_param(IS_RCC_TIM20CLKSOURCE(PeriphClkInit->Tim20ClockSelection));
    
    /* Configure the CEC clock source */
    __HAL_RCC_TIM20_CONFIG(PeriphClkInit->Tim20ClockSelection);
 800168e:	4a32      	ldr	r2, [pc, #200]	; (8001758 <HAL_RCCEx_PeriphCLKConfig+0x27c>)
 8001690:	6d21      	ldr	r1, [r4, #80]	; 0x50
 8001692:	6b13      	ldr	r3, [r2, #48]	; 0x30
 8001694:	f423 4300 	bic.w	r3, r3, #32768	; 0x8000
 8001698:	430b      	orrs	r3, r1
 800169a:	6313      	str	r3, [r2, #48]	; 0x30
  }
#endif /* STM32F303xE || STM32F398xx */  

  
  return HAL_OK;
 800169c:	2000      	movs	r0, #0
 800169e:	e013      	b.n	80016c8 <HAL_RCCEx_PeriphCLKConfig+0x1ec>
    FlagStatus       pwrclkchanged = RESET;
 80016a0:	2600      	movs	r6, #0
 80016a2:	e730      	b.n	8001506 <HAL_RCCEx_PeriphCLKConfig+0x2a>
      SET_BIT(PWR->CR, PWR_CR_DBP);
 80016a4:	683b      	ldr	r3, [r7, #0]
 80016a6:	f443 7380 	orr.w	r3, r3, #256	; 0x100
 80016aa:	603b      	str	r3, [r7, #0]
      tickstart = HAL_GetTick();
 80016ac:	f7ff fa08 	bl	8000ac0 <HAL_GetTick>
 80016b0:	4680      	mov	r8, r0
      while(HAL_IS_BIT_CLR(PWR->CR, PWR_CR_DBP))
 80016b2:	683b      	ldr	r3, [r7, #0]
 80016b4:	05d9      	lsls	r1, r3, #23
 80016b6:	f53f af2b 	bmi.w	8001510 <HAL_RCCEx_PeriphCLKConfig+0x34>
          if((HAL_GetTick() - tickstart) > RCC_DBP_TIMEOUT_VALUE)
 80016ba:	f7ff fa01 	bl	8000ac0 <HAL_GetTick>
 80016be:	eba0 0008 	sub.w	r0, r0, r8
 80016c2:	2864      	cmp	r0, #100	; 0x64
 80016c4:	d9f5      	bls.n	80016b2 <HAL_RCCEx_PeriphCLKConfig+0x1d6>
          return HAL_TIMEOUT;
 80016c6:	2003      	movs	r0, #3
}
 80016c8:	b002      	add	sp, #8
 80016ca:	e8bd 87f0 	ldmia.w	sp!, {r4, r5, r6, r7, r8, r9, sl, pc}
    if((temp_reg != 0x00000000U) && (temp_reg != (PeriphClkInit->RTCClockSelection & RCC_BDCR_RTCSEL)))
 80016ce:	6862      	ldr	r2, [r4, #4]
 80016d0:	f402 7240 	and.w	r2, r2, #768	; 0x300
 80016d4:	4293      	cmp	r3, r2
 80016d6:	f43f af20 	beq.w	800151a <HAL_RCCEx_PeriphCLKConfig+0x3e>
      temp_reg = (RCC->BDCR & ~(RCC_BDCR_RTCSEL));
 80016da:	6a29      	ldr	r1, [r5, #32]
 80016dc:	f44f 3380 	mov.w	r3, #65536	; 0x10000
 80016e0:	f421 7040 	bic.w	r0, r1, #768	; 0x300
 80016e4:	fa93 f2a3 	rbit	r2, r3
      __HAL_RCC_BACKUPRESET_FORCE();
 80016e8:	f8df e074 	ldr.w	lr, [pc, #116]	; 8001760 <HAL_RCCEx_PeriphCLKConfig+0x284>
 80016ec:	fab2 f282 	clz	r2, r2
 80016f0:	4472      	add	r2, lr
 80016f2:	0092      	lsls	r2, r2, #2
 80016f4:	2701      	movs	r7, #1
 80016f6:	6017      	str	r7, [r2, #0]
 80016f8:	fa93 f3a3 	rbit	r3, r3
      __HAL_RCC_BACKUPRESET_RELEASE();
 80016fc:	fab3 f383 	clz	r3, r3
 8001700:	4473      	add	r3, lr
 8001702:	009b      	lsls	r3, r3, #2
 8001704:	2200      	movs	r2, #0
 8001706:	601a      	str	r2, [r3, #0]
      if (HAL_IS_BIT_SET(temp_reg, RCC_BDCR_LSEON))
 8001708:	07ca      	lsls	r2, r1, #31
      RCC->BDCR = temp_reg;
 800170a:	6228      	str	r0, [r5, #32]
      if (HAL_IS_BIT_SET(temp_reg, RCC_BDCR_LSEON))
 800170c:	f57f af05 	bpl.w	800151a <HAL_RCCEx_PeriphCLKConfig+0x3e>
        tickstart = HAL_GetTick();
 8001710:	f7ff f9d6 	bl	8000ac0 <HAL_GetTick>
 8001714:	f04f 0802 	mov.w	r8, #2
 8001718:	4682      	mov	sl, r0
 800171a:	46c1      	mov	r9, r8
 800171c:	fa98 f3a8 	rbit	r3, r8
 8001720:	fa98 f3a8 	rbit	r3, r8
        while(__HAL_RCC_GET_FLAG(RCC_FLAG_LSERDY) == RESET)
 8001724:	b1a3      	cbz	r3, 8001750 <HAL_RCCEx_PeriphCLKConfig+0x274>
 8001726:	6a2a      	ldr	r2, [r5, #32]
 8001728:	fa99 f3a9 	rbit	r3, r9
 800172c:	fab3 f383 	clz	r3, r3
 8001730:	f003 031f 	and.w	r3, r3, #31
 8001734:	fa07 f303 	lsl.w	r3, r7, r3
 8001738:	4213      	tst	r3, r2
 800173a:	f47f aeee 	bne.w	800151a <HAL_RCCEx_PeriphCLKConfig+0x3e>
            if((HAL_GetTick() - tickstart) > RCC_LSE_TIMEOUT_VALUE)
 800173e:	f7ff f9bf 	bl	8000ac0 <HAL_GetTick>
 8001742:	f241 3388 	movw	r3, #5000	; 0x1388
 8001746:	eba0 000a 	sub.w	r0, r0, sl
 800174a:	4298      	cmp	r0, r3
 800174c:	d9e6      	bls.n	800171c <HAL_RCCEx_PeriphCLKConfig+0x240>
 800174e:	e7ba      	b.n	80016c6 <HAL_RCCEx_PeriphCLKConfig+0x1ea>
 8001750:	fa98 f3a8 	rbit	r3, r8
        while(__HAL_RCC_GET_FLAG(RCC_FLAG_LSERDY) == RESET)
 8001754:	6a6a      	ldr	r2, [r5, #36]	; 0x24
 8001756:	e7e7      	b.n	8001728 <HAL_RCCEx_PeriphCLKConfig+0x24c>
 8001758:	40021000 	.word	0x40021000
 800175c:	40007000 	.word	0x40007000
 8001760:	10908100 	.word	0x10908100

08001764 <HAL_TIM_ReadCapturedValue>:
  */
uint32_t HAL_TIM_ReadCapturedValue(TIM_HandleTypeDef *htim, uint32_t Channel)
{
  uint32_t tmpreg = 0U;
  
  __HAL_LOCK(htim);
 8001764:	f890 303c 	ldrb.w	r3, [r0, #60]	; 0x3c
 8001768:	2b01      	cmp	r3, #1
 800176a:	d01c      	beq.n	80017a6 <HAL_TIM_ReadCapturedValue+0x42>
  
  switch (Channel)
 800176c:	290c      	cmp	r1, #12
 800176e:	d818      	bhi.n	80017a2 <HAL_TIM_ReadCapturedValue+0x3e>
 8001770:	e8df f001 	tbb	[pc, r1]
 8001774:	17171707 	.word	0x17171707
 8001778:	1717170e 	.word	0x1717170e
 800177c:	17171711 	.word	0x17171711
 8001780:	14          	.byte	0x14
 8001781:	00          	.byte	0x00
    {
      /* Check the parameters */
      assert_param(IS_TIM_CC1_INSTANCE(htim->Instance));
      
      /* Return the capture 1 value */
      tmpreg =  htim->Instance->CCR1;
 8001782:	6803      	ldr	r3, [r0, #0]
 8001784:	6b5b      	ldr	r3, [r3, #52]	; 0x34
    
  default:
    break;  
  }
     
  __HAL_UNLOCK(htim);  
 8001786:	2200      	movs	r2, #0
 8001788:	f880 203c 	strb.w	r2, [r0, #60]	; 0x3c
  return tmpreg;
}
 800178c:	4618      	mov	r0, r3
 800178e:	4770      	bx	lr
      tmpreg =   htim->Instance->CCR2;
 8001790:	6803      	ldr	r3, [r0, #0]
 8001792:	6b9b      	ldr	r3, [r3, #56]	; 0x38
      break;
 8001794:	e7f7      	b.n	8001786 <HAL_TIM_ReadCapturedValue+0x22>
      tmpreg =   htim->Instance->CCR3;
 8001796:	6803      	ldr	r3, [r0, #0]
 8001798:	6bdb      	ldr	r3, [r3, #60]	; 0x3c
      break;
 800179a:	e7f4      	b.n	8001786 <HAL_TIM_ReadCapturedValue+0x22>
      tmpreg =   htim->Instance->CCR4;
 800179c:	6803      	ldr	r3, [r0, #0]
 800179e:	6c1b      	ldr	r3, [r3, #64]	; 0x40
      break;
 80017a0:	e7f1      	b.n	8001786 <HAL_TIM_ReadCapturedValue+0x22>
  uint32_t tmpreg = 0U;
 80017a2:	2300      	movs	r3, #0
 80017a4:	e7ef      	b.n	8001786 <HAL_TIM_ReadCapturedValue+0x22>
  __HAL_LOCK(htim);
 80017a6:	2302      	movs	r3, #2
 80017a8:	e7f0      	b.n	800178c <HAL_TIM_ReadCapturedValue+0x28>

080017aa <HAL_TIM_PeriodElapsedCallback>:
 80017aa:	4770      	bx	lr

080017ac <HAL_TIM_OC_DelayElapsedCallback>:
 80017ac:	4770      	bx	lr

080017ae <HAL_TIM_PWM_PulseFinishedCallback>:
 80017ae:	4770      	bx	lr

080017b0 <HAL_TIM_TriggerCallback>:
 80017b0:	4770      	bx	lr

080017b2 <HAL_TIM_IRQHandler>:
  if(__HAL_TIM_GET_FLAG(htim, TIM_FLAG_CC1) != RESET)
 80017b2:	6803      	ldr	r3, [r0, #0]
 80017b4:	691a      	ldr	r2, [r3, #16]
 80017b6:	0791      	lsls	r1, r2, #30
{
 80017b8:	b510      	push	{r4, lr}
 80017ba:	4604      	mov	r4, r0
  if(__HAL_TIM_GET_FLAG(htim, TIM_FLAG_CC1) != RESET)
 80017bc:	d50f      	bpl.n	80017de <HAL_TIM_IRQHandler+0x2c>
    if(__HAL_TIM_GET_IT_SOURCE(htim, TIM_IT_CC1) !=RESET)
 80017be:	68da      	ldr	r2, [r3, #12]
 80017c0:	0792      	lsls	r2, r2, #30
 80017c2:	d50c      	bpl.n	80017de <HAL_TIM_IRQHandler+0x2c>
        __HAL_TIM_CLEAR_FLAG(htim, TIM_FLAG_CC1);
 80017c4:	f06f 0202 	mvn.w	r2, #2
 80017c8:	611a      	str	r2, [r3, #16]
        if((htim->Instance->CCMR1 & TIM_CCMR1_CC1S) != 0x00U)
 80017ca:	699b      	ldr	r3, [r3, #24]
        htim->Channel = HAL_TIM_ACTIVE_CHANNEL_1;
 80017cc:	2201      	movs	r2, #1
        if((htim->Instance->CCMR1 & TIM_CCMR1_CC1S) != 0x00U)
 80017ce:	0799      	lsls	r1, r3, #30
        htim->Channel = HAL_TIM_ACTIVE_CHANNEL_1;
 80017d0:	7702      	strb	r2, [r0, #28]
        if((htim->Instance->CCMR1 & TIM_CCMR1_CC1S) != 0x00U)
 80017d2:	f000 8085 	beq.w	80018e0 <HAL_TIM_IRQHandler+0x12e>
          HAL_TIM_IC_CaptureCallback(htim);
 80017d6:	f000 fc8f 	bl	80020f8 <HAL_TIM_IC_CaptureCallback>
        htim->Channel = HAL_TIM_ACTIVE_CHANNEL_CLEARED;
 80017da:	2300      	movs	r3, #0
 80017dc:	7723      	strb	r3, [r4, #28]
  if(__HAL_TIM_GET_FLAG(htim, TIM_FLAG_CC2) != RESET)
 80017de:	6823      	ldr	r3, [r4, #0]
 80017e0:	691a      	ldr	r2, [r3, #16]
 80017e2:	0752      	lsls	r2, r2, #29
 80017e4:	d510      	bpl.n	8001808 <HAL_TIM_IRQHandler+0x56>
    if(__HAL_TIM_GET_IT_SOURCE(htim, TIM_IT_CC2) !=RESET)
 80017e6:	68da      	ldr	r2, [r3, #12]
 80017e8:	0750      	lsls	r0, r2, #29
 80017ea:	d50d      	bpl.n	8001808 <HAL_TIM_IRQHandler+0x56>
      __HAL_TIM_CLEAR_FLAG(htim, TIM_FLAG_CC2);
 80017ec:	f06f 0204 	mvn.w	r2, #4
 80017f0:	611a      	str	r2, [r3, #16]
      if((htim->Instance->CCMR1 & TIM_CCMR1_CC2S) != 0x00U)
 80017f2:	699b      	ldr	r3, [r3, #24]
      htim->Channel = HAL_TIM_ACTIVE_CHANNEL_2;
 80017f4:	2202      	movs	r2, #2
      if((htim->Instance->CCMR1 & TIM_CCMR1_CC2S) != 0x00U)
 80017f6:	f413 7f40 	tst.w	r3, #768	; 0x300
      htim->Channel = HAL_TIM_ACTIVE_CHANNEL_2;
 80017fa:	7722      	strb	r2, [r4, #28]
        HAL_TIM_IC_CaptureCallback(htim);
 80017fc:	4620      	mov	r0, r4
      if((htim->Instance->CCMR1 & TIM_CCMR1_CC2S) != 0x00U)
 80017fe:	d075      	beq.n	80018ec <HAL_TIM_IRQHandler+0x13a>
        HAL_TIM_IC_CaptureCallback(htim);
 8001800:	f000 fc7a 	bl	80020f8 <HAL_TIM_IC_CaptureCallback>
      htim->Channel = HAL_TIM_ACTIVE_CHANNEL_CLEARED;
 8001804:	2300      	movs	r3, #0
 8001806:	7723      	strb	r3, [r4, #28]
  if(__HAL_TIM_GET_FLAG(htim, TIM_FLAG_CC3) != RESET)
 8001808:	6823      	ldr	r3, [r4, #0]
 800180a:	691a      	ldr	r2, [r3, #16]
 800180c:	0711      	lsls	r1, r2, #28
 800180e:	d50f      	bpl.n	8001830 <HAL_TIM_IRQHandler+0x7e>
    if(__HAL_TIM_GET_IT_SOURCE(htim, TIM_IT_CC3) !=RESET)
 8001810:	68da      	ldr	r2, [r3, #12]
 8001812:	0712      	lsls	r2, r2, #28
 8001814:	d50c      	bpl.n	8001830 <HAL_TIM_IRQHandler+0x7e>
      __HAL_TIM_CLEAR_FLAG(htim, TIM_FLAG_CC3);
 8001816:	f06f 0208 	mvn.w	r2, #8
 800181a:	611a      	str	r2, [r3, #16]
      if((htim->Instance->CCMR2 & TIM_CCMR2_CC3S) != 0x00U)
 800181c:	69db      	ldr	r3, [r3, #28]
      htim->Channel = HAL_TIM_ACTIVE_CHANNEL_3;
 800181e:	2204      	movs	r2, #4
      if((htim->Instance->CCMR2 & TIM_CCMR2_CC3S) != 0x00U)
 8001820:	079b      	lsls	r3, r3, #30
      htim->Channel = HAL_TIM_ACTIVE_CHANNEL_3;
 8001822:	7722      	strb	r2, [r4, #28]
        HAL_TIM_IC_CaptureCallback(htim);
 8001824:	4620      	mov	r0, r4
      if((htim->Instance->CCMR2 & TIM_CCMR2_CC3S) != 0x00U)
 8001826:	d067      	beq.n	80018f8 <HAL_TIM_IRQHandler+0x146>
        HAL_TIM_IC_CaptureCallback(htim);
 8001828:	f000 fc66 	bl	80020f8 <HAL_TIM_IC_CaptureCallback>
      htim->Channel = HAL_TIM_ACTIVE_CHANNEL_CLEARED;
 800182c:	2300      	movs	r3, #0
 800182e:	7723      	strb	r3, [r4, #28]
  if(__HAL_TIM_GET_FLAG(htim, TIM_FLAG_CC4) != RESET)
 8001830:	6823      	ldr	r3, [r4, #0]
 8001832:	691a      	ldr	r2, [r3, #16]
 8001834:	06d0      	lsls	r0, r2, #27
 8001836:	d510      	bpl.n	800185a <HAL_TIM_IRQHandler+0xa8>
    if(__HAL_TIM_GET_IT_SOURCE(htim, TIM_IT_CC4) !=RESET)
 8001838:	68da      	ldr	r2, [r3, #12]
 800183a:	06d1      	lsls	r1, r2, #27
 800183c:	d50d      	bpl.n	800185a <HAL_TIM_IRQHandler+0xa8>
      __HAL_TIM_CLEAR_FLAG(htim, TIM_FLAG_CC4);
 800183e:	f06f 0210 	mvn.w	r2, #16
 8001842:	611a      	str	r2, [r3, #16]
      if((htim->Instance->CCMR2 & TIM_CCMR2_CC4S) != 0x00U)
 8001844:	69db      	ldr	r3, [r3, #28]
      htim->Channel = HAL_TIM_ACTIVE_CHANNEL_4;
 8001846:	2208      	movs	r2, #8
      if((htim->Instance->CCMR2 & TIM_CCMR2_CC4S) != 0x00U)
 8001848:	f413 7f40 	tst.w	r3, #768	; 0x300
      htim->Channel = HAL_TIM_ACTIVE_CHANNEL_4;
 800184c:	7722      	strb	r2, [r4, #28]
        HAL_TIM_IC_CaptureCallback(htim);
 800184e:	4620      	mov	r0, r4
      if((htim->Instance->CCMR2 & TIM_CCMR2_CC4S) != 0x00U)
 8001850:	d058      	beq.n	8001904 <HAL_TIM_IRQHandler+0x152>
        HAL_TIM_IC_CaptureCallback(htim);
 8001852:	f000 fc51 	bl	80020f8 <HAL_TIM_IC_CaptureCallback>
      htim->Channel = HAL_TIM_ACTIVE_CHANNEL_CLEARED;
 8001856:	2300      	movs	r3, #0
 8001858:	7723      	strb	r3, [r4, #28]
  if(__HAL_TIM_GET_FLAG(htim, TIM_FLAG_UPDATE) != RESET)
 800185a:	6823      	ldr	r3, [r4, #0]
 800185c:	691a      	ldr	r2, [r3, #16]
 800185e:	07d2      	lsls	r2, r2, #31
 8001860:	d508      	bpl.n	8001874 <HAL_TIM_IRQHandler+0xc2>
    if(__HAL_TIM_GET_IT_SOURCE(htim, TIM_IT_UPDATE) !=RESET)
 8001862:	68da      	ldr	r2, [r3, #12]
 8001864:	07d0      	lsls	r0, r2, #31
 8001866:	d505      	bpl.n	8001874 <HAL_TIM_IRQHandler+0xc2>
      __HAL_TIM_CLEAR_FLAG(htim, TIM_FLAG_UPDATE);
 8001868:	f06f 0201 	mvn.w	r2, #1
 800186c:	611a      	str	r2, [r3, #16]
      HAL_TIM_PeriodElapsedCallback(htim);
 800186e:	4620      	mov	r0, r4
 8001870:	f7ff ff9b 	bl	80017aa <HAL_TIM_PeriodElapsedCallback>
  if(__HAL_TIM_GET_FLAG(htim, TIM_FLAG_BREAK) != RESET)
 8001874:	6823      	ldr	r3, [r4, #0]
 8001876:	691a      	ldr	r2, [r3, #16]
 8001878:	0611      	lsls	r1, r2, #24
 800187a:	d508      	bpl.n	800188e <HAL_TIM_IRQHandler+0xdc>
    if(__HAL_TIM_GET_IT_SOURCE(htim, TIM_IT_BREAK) !=RESET)
 800187c:	68da      	ldr	r2, [r3, #12]
 800187e:	0612      	lsls	r2, r2, #24
 8001880:	d505      	bpl.n	800188e <HAL_TIM_IRQHandler+0xdc>
      __HAL_TIM_CLEAR_FLAG(htim, TIM_FLAG_BREAK);
 8001882:	f06f 0280 	mvn.w	r2, #128	; 0x80
 8001886:	611a      	str	r2, [r3, #16]
      HAL_TIMEx_BreakCallback(htim);
 8001888:	4620      	mov	r0, r4
 800188a:	f000 f9e8 	bl	8001c5e <HAL_TIMEx_BreakCallback>
  if(__HAL_TIM_GET_FLAG(htim, TIM_FLAG_BREAK2) != RESET)
 800188e:	6823      	ldr	r3, [r4, #0]
 8001890:	691a      	ldr	r2, [r3, #16]
 8001892:	05d0      	lsls	r0, r2, #23
 8001894:	d508      	bpl.n	80018a8 <HAL_TIM_IRQHandler+0xf6>
    if(__HAL_TIM_GET_IT_SOURCE(htim, TIM_IT_BREAK) !=RESET)
 8001896:	68da      	ldr	r2, [r3, #12]
 8001898:	0611      	lsls	r1, r2, #24
 800189a:	d505      	bpl.n	80018a8 <HAL_TIM_IRQHandler+0xf6>
      __HAL_TIM_CLEAR_FLAG(htim, TIM_FLAG_BREAK2);
 800189c:	f46f 7280 	mvn.w	r2, #256	; 0x100
 80018a0:	611a      	str	r2, [r3, #16]
      HAL_TIMEx_Break2Callback(htim);
 80018a2:	4620      	mov	r0, r4
 80018a4:	f000 f9dc 	bl	8001c60 <HAL_TIMEx_Break2Callback>
  if(__HAL_TIM_GET_FLAG(htim, TIM_FLAG_TRIGGER) != RESET)
 80018a8:	6823      	ldr	r3, [r4, #0]
 80018aa:	691a      	ldr	r2, [r3, #16]
 80018ac:	0652      	lsls	r2, r2, #25
 80018ae:	d508      	bpl.n	80018c2 <HAL_TIM_IRQHandler+0x110>
    if(__HAL_TIM_GET_IT_SOURCE(htim, TIM_IT_TRIGGER) !=RESET)
 80018b0:	68da      	ldr	r2, [r3, #12]
 80018b2:	0650      	lsls	r0, r2, #25
 80018b4:	d505      	bpl.n	80018c2 <HAL_TIM_IRQHandler+0x110>
      __HAL_TIM_CLEAR_FLAG(htim, TIM_FLAG_TRIGGER);
 80018b6:	f06f 0240 	mvn.w	r2, #64	; 0x40
 80018ba:	611a      	str	r2, [r3, #16]
      HAL_TIM_TriggerCallback(htim);
 80018bc:	4620      	mov	r0, r4
 80018be:	f7ff ff77 	bl	80017b0 <HAL_TIM_TriggerCallback>
  if(__HAL_TIM_GET_FLAG(htim, TIM_FLAG_COM) != RESET)
 80018c2:	6823      	ldr	r3, [r4, #0]
 80018c4:	691a      	ldr	r2, [r3, #16]
 80018c6:	0691      	lsls	r1, r2, #26
 80018c8:	d522      	bpl.n	8001910 <HAL_TIM_IRQHandler+0x15e>
    if(__HAL_TIM_GET_IT_SOURCE(htim, TIM_IT_COM) !=RESET)
 80018ca:	68da      	ldr	r2, [r3, #12]
 80018cc:	0692      	lsls	r2, r2, #26
 80018ce:	d51f      	bpl.n	8001910 <HAL_TIM_IRQHandler+0x15e>
      __HAL_TIM_CLEAR_FLAG(htim, TIM_FLAG_COM);
 80018d0:	f06f 0220 	mvn.w	r2, #32
      HAL_TIMEx_CommutationCallback(htim);
 80018d4:	4620      	mov	r0, r4
      __HAL_TIM_CLEAR_FLAG(htim, TIM_FLAG_COM);
 80018d6:	611a      	str	r2, [r3, #16]
}
 80018d8:	e8bd 4010 	ldmia.w	sp!, {r4, lr}
      HAL_TIMEx_CommutationCallback(htim);
 80018dc:	f000 b9be 	b.w	8001c5c <HAL_TIMEx_CommutationCallback>
          HAL_TIM_OC_DelayElapsedCallback(htim);
 80018e0:	f7ff ff64 	bl	80017ac <HAL_TIM_OC_DelayElapsedCallback>
          HAL_TIM_PWM_PulseFinishedCallback(htim);
 80018e4:	4620      	mov	r0, r4
 80018e6:	f7ff ff62 	bl	80017ae <HAL_TIM_PWM_PulseFinishedCallback>
 80018ea:	e776      	b.n	80017da <HAL_TIM_IRQHandler+0x28>
        HAL_TIM_OC_DelayElapsedCallback(htim);
 80018ec:	f7ff ff5e 	bl	80017ac <HAL_TIM_OC_DelayElapsedCallback>
        HAL_TIM_PWM_PulseFinishedCallback(htim);
 80018f0:	4620      	mov	r0, r4
 80018f2:	f7ff ff5c 	bl	80017ae <HAL_TIM_PWM_PulseFinishedCallback>
 80018f6:	e785      	b.n	8001804 <HAL_TIM_IRQHandler+0x52>
        HAL_TIM_OC_DelayElapsedCallback(htim);
 80018f8:	f7ff ff58 	bl	80017ac <HAL_TIM_OC_DelayElapsedCallback>
        HAL_TIM_PWM_PulseFinishedCallback(htim); 
 80018fc:	4620      	mov	r0, r4
 80018fe:	f7ff ff56 	bl	80017ae <HAL_TIM_PWM_PulseFinishedCallback>
 8001902:	e793      	b.n	800182c <HAL_TIM_IRQHandler+0x7a>
        HAL_TIM_OC_DelayElapsedCallback(htim);
 8001904:	f7ff ff52 	bl	80017ac <HAL_TIM_OC_DelayElapsedCallback>
        HAL_TIM_PWM_PulseFinishedCallback(htim);
 8001908:	4620      	mov	r0, r4
 800190a:	f7ff ff50 	bl	80017ae <HAL_TIM_PWM_PulseFinishedCallback>
 800190e:	e7a2      	b.n	8001856 <HAL_TIM_IRQHandler+0xa4>
 8001910:	bd10      	pop	{r4, pc}
	...

08001914 <TIM_Base_SetConfig>:
{
  uint32_t tmpcr1 = 0U;
  tmpcr1 = TIMx->CR1;
  
  /* Set TIM Time Base Unit parameters ---------------------------------------*/
  if (IS_TIM_COUNTER_MODE_SELECT_INSTANCE(TIMx))
 8001914:	4a32      	ldr	r2, [pc, #200]	; (80019e0 <TIM_Base_SetConfig+0xcc>)
  tmpcr1 = TIMx->CR1;
 8001916:	6803      	ldr	r3, [r0, #0]
  if (IS_TIM_COUNTER_MODE_SELECT_INSTANCE(TIMx))
 8001918:	4290      	cmp	r0, r2
 800191a:	d012      	beq.n	8001942 <TIM_Base_SetConfig+0x2e>
 800191c:	f1b0 4f80 	cmp.w	r0, #1073741824	; 0x40000000
 8001920:	d00f      	beq.n	8001942 <TIM_Base_SetConfig+0x2e>
 8001922:	f5a2 3294 	sub.w	r2, r2, #75776	; 0x12800
 8001926:	4290      	cmp	r0, r2
 8001928:	d00b      	beq.n	8001942 <TIM_Base_SetConfig+0x2e>
 800192a:	f502 6280 	add.w	r2, r2, #1024	; 0x400
 800192e:	4290      	cmp	r0, r2
 8001930:	d007      	beq.n	8001942 <TIM_Base_SetConfig+0x2e>
 8001932:	f502 3296 	add.w	r2, r2, #76800	; 0x12c00
 8001936:	4290      	cmp	r0, r2
 8001938:	d003      	beq.n	8001942 <TIM_Base_SetConfig+0x2e>
 800193a:	f502 52e0 	add.w	r2, r2, #7168	; 0x1c00
 800193e:	4290      	cmp	r0, r2
 8001940:	d115      	bne.n	800196e <TIM_Base_SetConfig+0x5a>
  {
    /* Select the Counter Mode */
    tmpcr1 &= ~(TIM_CR1_DIR | TIM_CR1_CMS);
    tmpcr1 |= Structure->CounterMode;
 8001942:	684a      	ldr	r2, [r1, #4]
    tmpcr1 &= ~(TIM_CR1_DIR | TIM_CR1_CMS);
 8001944:	f023 0370 	bic.w	r3, r3, #112	; 0x70
    tmpcr1 |= Structure->CounterMode;
 8001948:	4313      	orrs	r3, r2
  }
 
  if(IS_TIM_CLOCK_DIVISION_INSTANCE(TIMx))
 800194a:	4a25      	ldr	r2, [pc, #148]	; (80019e0 <TIM_Base_SetConfig+0xcc>)
 800194c:	4290      	cmp	r0, r2
 800194e:	d01d      	beq.n	800198c <TIM_Base_SetConfig+0x78>
 8001950:	f1b0 4f80 	cmp.w	r0, #1073741824	; 0x40000000
 8001954:	d01a      	beq.n	800198c <TIM_Base_SetConfig+0x78>
 8001956:	f5a2 3294 	sub.w	r2, r2, #75776	; 0x12800
 800195a:	4290      	cmp	r0, r2
 800195c:	d016      	beq.n	800198c <TIM_Base_SetConfig+0x78>
 800195e:	f502 6280 	add.w	r2, r2, #1024	; 0x400
 8001962:	4290      	cmp	r0, r2
 8001964:	d012      	beq.n	800198c <TIM_Base_SetConfig+0x78>
 8001966:	f502 3296 	add.w	r2, r2, #76800	; 0x12c00
 800196a:	4290      	cmp	r0, r2
 800196c:	d00e      	beq.n	800198c <TIM_Base_SetConfig+0x78>
 800196e:	4a1d      	ldr	r2, [pc, #116]	; (80019e4 <TIM_Base_SetConfig+0xd0>)
 8001970:	4290      	cmp	r0, r2
 8001972:	d00b      	beq.n	800198c <TIM_Base_SetConfig+0x78>
 8001974:	f502 6280 	add.w	r2, r2, #1024	; 0x400
 8001978:	4290      	cmp	r0, r2
 800197a:	d007      	beq.n	800198c <TIM_Base_SetConfig+0x78>
 800197c:	f502 6280 	add.w	r2, r2, #1024	; 0x400
 8001980:	4290      	cmp	r0, r2
 8001982:	d003      	beq.n	800198c <TIM_Base_SetConfig+0x78>
 8001984:	f502 6200 	add.w	r2, r2, #2048	; 0x800
 8001988:	4290      	cmp	r0, r2
 800198a:	d103      	bne.n	8001994 <TIM_Base_SetConfig+0x80>
  {
    /* Set the clock division */
    tmpcr1 &= ~TIM_CR1_CKD;
    tmpcr1 |= (uint32_t)Structure->ClockDivision;
 800198c:	68ca      	ldr	r2, [r1, #12]
    tmpcr1 &= ~TIM_CR1_CKD;
 800198e:	f423 7340 	bic.w	r3, r3, #768	; 0x300
    tmpcr1 |= (uint32_t)Structure->ClockDivision;
 8001992:	4313      	orrs	r3, r2
  }

  /* Set the auto-reload preload */
  MODIFY_REG(tmpcr1, TIM_CR1_ARPE, Structure->AutoReloadPreload);
 8001994:	694a      	ldr	r2, [r1, #20]
 8001996:	f023 0380 	bic.w	r3, r3, #128	; 0x80
 800199a:	4313      	orrs	r3, r2

  TIMx->CR1 = tmpcr1;
 800199c:	6003      	str	r3, [r0, #0]

  /* Set the Autoreload value */
  TIMx->ARR = (uint32_t)Structure->Period ;
 800199e:	688b      	ldr	r3, [r1, #8]
 80019a0:	62c3      	str	r3, [r0, #44]	; 0x2c
 
  /* Set the Prescaler value */
  TIMx->PSC = (uint32_t)Structure->Prescaler;
 80019a2:	680b      	ldr	r3, [r1, #0]
 80019a4:	6283      	str	r3, [r0, #40]	; 0x28
    
  if (IS_TIM_REPETITION_COUNTER_INSTANCE(TIMx))  
 80019a6:	4b0e      	ldr	r3, [pc, #56]	; (80019e0 <TIM_Base_SetConfig+0xcc>)
 80019a8:	4298      	cmp	r0, r3
 80019aa:	d013      	beq.n	80019d4 <TIM_Base_SetConfig+0xc0>
 80019ac:	f503 6300 	add.w	r3, r3, #2048	; 0x800
 80019b0:	4298      	cmp	r0, r3
 80019b2:	d00f      	beq.n	80019d4 <TIM_Base_SetConfig+0xc0>
 80019b4:	f503 6340 	add.w	r3, r3, #3072	; 0xc00
 80019b8:	4298      	cmp	r0, r3
 80019ba:	d00b      	beq.n	80019d4 <TIM_Base_SetConfig+0xc0>
 80019bc:	f503 6380 	add.w	r3, r3, #1024	; 0x400
 80019c0:	4298      	cmp	r0, r3
 80019c2:	d007      	beq.n	80019d4 <TIM_Base_SetConfig+0xc0>
 80019c4:	f503 6380 	add.w	r3, r3, #1024	; 0x400
 80019c8:	4298      	cmp	r0, r3
 80019ca:	d003      	beq.n	80019d4 <TIM_Base_SetConfig+0xc0>
 80019cc:	f503 6300 	add.w	r3, r3, #2048	; 0x800
 80019d0:	4298      	cmp	r0, r3
 80019d2:	d101      	bne.n	80019d8 <TIM_Base_SetConfig+0xc4>
  {
    /* Set the Repetition Counter value */
    TIMx->RCR = Structure->RepetitionCounter;
 80019d4:	690b      	ldr	r3, [r1, #16]
 80019d6:	6303      	str	r3, [r0, #48]	; 0x30
  }

  /* Generate an update event to reload the Prescaler 
     and the repetition counter(only for TIM1 and TIM8) value immediatly */
  TIMx->EGR = TIM_EGR_UG;
 80019d8:	2301      	movs	r3, #1
 80019da:	6143      	str	r3, [r0, #20]
 80019dc:	4770      	bx	lr
 80019de:	bf00      	nop
 80019e0:	40012c00 	.word	0x40012c00
 80019e4:	40014000 	.word	0x40014000

080019e8 <HAL_TIM_IC_Init>:
{
 80019e8:	b510      	push	{r4, lr}
  if(htim == NULL)
 80019ea:	4604      	mov	r4, r0
 80019ec:	b1a0      	cbz	r0, 8001a18 <HAL_TIM_IC_Init+0x30>
  if(htim->State == HAL_TIM_STATE_RESET)
 80019ee:	f890 303d 	ldrb.w	r3, [r0, #61]	; 0x3d
 80019f2:	f003 02ff 	and.w	r2, r3, #255	; 0xff
 80019f6:	b91b      	cbnz	r3, 8001a00 <HAL_TIM_IC_Init+0x18>
    htim->Lock = HAL_UNLOCKED;
 80019f8:	f880 203c 	strb.w	r2, [r0, #60]	; 0x3c
    HAL_TIM_IC_MspInit(htim);
 80019fc:	f000 fcea 	bl	80023d4 <HAL_TIM_IC_MspInit>
  htim->State= HAL_TIM_STATE_BUSY; 
 8001a00:	2302      	movs	r3, #2
 8001a02:	f884 303d 	strb.w	r3, [r4, #61]	; 0x3d
  TIM_Base_SetConfig(htim->Instance, &htim->Init); 
 8001a06:	6820      	ldr	r0, [r4, #0]
 8001a08:	1d21      	adds	r1, r4, #4
 8001a0a:	f7ff ff83 	bl	8001914 <TIM_Base_SetConfig>
  htim->State= HAL_TIM_STATE_READY;
 8001a0e:	2301      	movs	r3, #1
 8001a10:	f884 303d 	strb.w	r3, [r4, #61]	; 0x3d
  return HAL_OK;
 8001a14:	2000      	movs	r0, #0
 8001a16:	bd10      	pop	{r4, pc}
    return HAL_ERROR;
 8001a18:	2001      	movs	r0, #1
}
 8001a1a:	bd10      	pop	{r4, pc}

08001a1c <TIM_TI1_SetConfig>:
  *       (on channel2 path) is used as the input signal. Therefore CCMR1 must be 
  *        protected against un-initialized filter and polarity values.
  */
void TIM_TI1_SetConfig(TIM_TypeDef *TIMx, uint32_t TIM_ICPolarity, uint32_t TIM_ICSelection,
                       uint32_t TIM_ICFilter)
{
 8001a1c:	b570      	push	{r4, r5, r6, lr}
  uint32_t tmpccmr1 = 0U;
  uint32_t tmpccer = 0U;

  /* Disable the Channel 1: Reset the CC1E Bit */
  TIMx->CCER &= ~TIM_CCER_CC1E;
 8001a1e:	6a04      	ldr	r4, [r0, #32]
  tmpccmr1 = TIMx->CCMR1;
  tmpccer = TIMx->CCER;

  /* Select the Input */
  if(IS_TIM_CC2_INSTANCE(TIMx) != RESET)
 8001a20:	4e18      	ldr	r6, [pc, #96]	; (8001a84 <TIM_TI1_SetConfig+0x68>)
  TIMx->CCER &= ~TIM_CCER_CC1E;
 8001a22:	f024 0401 	bic.w	r4, r4, #1
 8001a26:	6204      	str	r4, [r0, #32]
  if(IS_TIM_CC2_INSTANCE(TIMx) != RESET)
 8001a28:	42b0      	cmp	r0, r6
  tmpccmr1 = TIMx->CCMR1;
 8001a2a:	6984      	ldr	r4, [r0, #24]
  tmpccer = TIMx->CCER;
 8001a2c:	6a05      	ldr	r5, [r0, #32]
  if(IS_TIM_CC2_INSTANCE(TIMx) != RESET)
 8001a2e:	d016      	beq.n	8001a5e <TIM_TI1_SetConfig+0x42>
 8001a30:	f1b0 4f80 	cmp.w	r0, #1073741824	; 0x40000000
 8001a34:	d013      	beq.n	8001a5e <TIM_TI1_SetConfig+0x42>
 8001a36:	f5a6 3694 	sub.w	r6, r6, #75776	; 0x12800
 8001a3a:	42b0      	cmp	r0, r6
 8001a3c:	d00f      	beq.n	8001a5e <TIM_TI1_SetConfig+0x42>
 8001a3e:	f506 6680 	add.w	r6, r6, #1024	; 0x400
 8001a42:	42b0      	cmp	r0, r6
 8001a44:	d00b      	beq.n	8001a5e <TIM_TI1_SetConfig+0x42>
 8001a46:	f506 3696 	add.w	r6, r6, #76800	; 0x12c00
 8001a4a:	42b0      	cmp	r0, r6
 8001a4c:	d007      	beq.n	8001a5e <TIM_TI1_SetConfig+0x42>
 8001a4e:	f506 6640 	add.w	r6, r6, #3072	; 0xc00
 8001a52:	42b0      	cmp	r0, r6
 8001a54:	d003      	beq.n	8001a5e <TIM_TI1_SetConfig+0x42>
 8001a56:	f506 5680 	add.w	r6, r6, #4096	; 0x1000
 8001a5a:	42b0      	cmp	r0, r6
 8001a5c:	d10f      	bne.n	8001a7e <TIM_TI1_SetConfig+0x62>
  {
    tmpccmr1 &= ~TIM_CCMR1_CC1S;
 8001a5e:	f024 0403 	bic.w	r4, r4, #3
    tmpccmr1 |= TIM_ICSelection;
 8001a62:	4322      	orrs	r2, r4
    tmpccmr1 |= TIM_CCMR1_CC1S_0;
  }
  
  /* Set the filter */
  tmpccmr1 &= ~TIM_CCMR1_IC1F;
  tmpccmr1 |= ((TIM_ICFilter << 4U) & TIM_CCMR1_IC1F);
 8001a64:	011b      	lsls	r3, r3, #4
  tmpccmr1 &= ~TIM_CCMR1_IC1F;
 8001a66:	f022 02f0 	bic.w	r2, r2, #240	; 0xf0
  tmpccmr1 |= ((TIM_ICFilter << 4U) & TIM_CCMR1_IC1F);
 8001a6a:	b2db      	uxtb	r3, r3

  /* Select the Polarity and set the CC1E Bit */
  tmpccer &= ~(TIM_CCER_CC1P | TIM_CCER_CC1NP);
 8001a6c:	f025 050a 	bic.w	r5, r5, #10
  tmpccer |= (TIM_ICPolarity & (TIM_CCER_CC1P | TIM_CCER_CC1NP));
 8001a70:	f001 010a 	and.w	r1, r1, #10
  tmpccmr1 |= ((TIM_ICFilter << 4U) & TIM_CCMR1_IC1F);
 8001a74:	431a      	orrs	r2, r3
  tmpccer |= (TIM_ICPolarity & (TIM_CCER_CC1P | TIM_CCER_CC1NP));
 8001a76:	4329      	orrs	r1, r5

  /* Write to TIMx CCMR1 and CCER registers */
  TIMx->CCMR1 = tmpccmr1;
 8001a78:	6182      	str	r2, [r0, #24]
  TIMx->CCER = tmpccer;
 8001a7a:	6201      	str	r1, [r0, #32]
}
 8001a7c:	bd70      	pop	{r4, r5, r6, pc}
    tmpccmr1 |= TIM_CCMR1_CC1S_0;
 8001a7e:	f044 0201 	orr.w	r2, r4, #1
 8001a82:	e7ef      	b.n	8001a64 <TIM_TI1_SetConfig+0x48>
 8001a84:	40012c00 	.word	0x40012c00

08001a88 <HAL_TIM_IC_ConfigChannel>:
{
 8001a88:	b5f8      	push	{r3, r4, r5, r6, r7, lr}
  __HAL_LOCK(htim);
 8001a8a:	f890 303c 	ldrb.w	r3, [r0, #60]	; 0x3c
 8001a8e:	2b01      	cmp	r3, #1
{
 8001a90:	4604      	mov	r4, r0
 8001a92:	460d      	mov	r5, r1
 8001a94:	f04f 0002 	mov.w	r0, #2
  __HAL_LOCK(htim);
 8001a98:	d019      	beq.n	8001ace <HAL_TIM_IC_ConfigChannel+0x46>
 8001a9a:	2301      	movs	r3, #1
 8001a9c:	f884 303c 	strb.w	r3, [r4, #60]	; 0x3c
  htim->State = HAL_TIM_STATE_BUSY;
 8001aa0:	f884 003d 	strb.w	r0, [r4, #61]	; 0x3d
  if (Channel == TIM_CHANNEL_1)
 8001aa4:	b9a2      	cbnz	r2, 8001ad0 <HAL_TIM_IC_ConfigChannel+0x48>
    TIM_TI1_SetConfig(htim->Instance,
 8001aa6:	68cb      	ldr	r3, [r1, #12]
 8001aa8:	6820      	ldr	r0, [r4, #0]
 8001aaa:	c906      	ldmia	r1, {r1, r2}
 8001aac:	f7ff ffb6 	bl	8001a1c <TIM_TI1_SetConfig>
    htim->Instance->CCMR1 &= ~TIM_CCMR1_IC1PSC;
 8001ab0:	6823      	ldr	r3, [r4, #0]
    htim->Instance->CCMR1 |= sConfig->ICPrescaler;
 8001ab2:	68a9      	ldr	r1, [r5, #8]
    htim->Instance->CCMR1 &= ~TIM_CCMR1_IC1PSC;
 8001ab4:	699a      	ldr	r2, [r3, #24]
 8001ab6:	f022 020c 	bic.w	r2, r2, #12
 8001aba:	619a      	str	r2, [r3, #24]
    htim->Instance->CCMR1 |= sConfig->ICPrescaler;
 8001abc:	699a      	ldr	r2, [r3, #24]
 8001abe:	430a      	orrs	r2, r1
 8001ac0:	619a      	str	r2, [r3, #24]
  htim->State = HAL_TIM_STATE_READY;
 8001ac2:	2301      	movs	r3, #1
  __HAL_UNLOCK(htim);
 8001ac4:	2000      	movs	r0, #0
  htim->State = HAL_TIM_STATE_READY;
 8001ac6:	f884 303d 	strb.w	r3, [r4, #61]	; 0x3d
  __HAL_UNLOCK(htim);
 8001aca:	f884 003c 	strb.w	r0, [r4, #60]	; 0x3c
}
 8001ace:	bdf8      	pop	{r3, r4, r5, r6, r7, pc}
  else if (Channel == TIM_CHANNEL_2)
 8001ad0:	2a04      	cmp	r2, #4
 8001ad2:	688e      	ldr	r6, [r1, #8]
 8001ad4:	6823      	ldr	r3, [r4, #0]
 8001ad6:	68e8      	ldr	r0, [r5, #12]
 8001ad8:	c982      	ldmia	r1, {r1, r7}
 8001ada:	d11f      	bne.n	8001b1c <HAL_TIM_IC_ConfigChannel+0x94>
{
  uint32_t tmpccmr1 = 0U;
  uint32_t tmpccer = 0U;

  /* Disable the Channel 2: Reset the CC2E Bit */
  TIMx->CCER &= ~TIM_CCER_CC2E;
 8001adc:	6a1a      	ldr	r2, [r3, #32]
 8001ade:	f022 0210 	bic.w	r2, r2, #16
 8001ae2:	621a      	str	r2, [r3, #32]
  tmpccmr1 = TIMx->CCMR1;
 8001ae4:	699a      	ldr	r2, [r3, #24]
  tmpccer = TIMx->CCER;
 8001ae6:	6a1d      	ldr	r5, [r3, #32]

  /* Select the Input */
  tmpccmr1 &= ~TIM_CCMR1_CC2S;
 8001ae8:	f422 7240 	bic.w	r2, r2, #768	; 0x300
  tmpccmr1 |= (TIM_ICSelection << 8U);
 8001aec:	ea42 2207 	orr.w	r2, r2, r7, lsl #8

  /* Set the filter */
  tmpccmr1 &= ~TIM_CCMR1_IC2F;
  tmpccmr1 |= ((TIM_ICFilter << 12U) & TIM_CCMR1_IC2F);
 8001af0:	0300      	lsls	r0, r0, #12
 8001af2:	b280      	uxth	r0, r0
  tmpccmr1 &= ~TIM_CCMR1_IC2F;
 8001af4:	f422 4270 	bic.w	r2, r2, #61440	; 0xf000

  /* Select the Polarity and set the CC2E Bit */
  tmpccer &= ~(TIM_CCER_CC2P | TIM_CCER_CC2NP);
  tmpccer |= ((TIM_ICPolarity << 4U) & (TIM_CCER_CC2P | TIM_CCER_CC2NP));
 8001af8:	0109      	lsls	r1, r1, #4
  tmpccmr1 |= ((TIM_ICFilter << 12U) & TIM_CCMR1_IC2F);
 8001afa:	4302      	orrs	r2, r0
  tmpccer |= ((TIM_ICPolarity << 4U) & (TIM_CCER_CC2P | TIM_CCER_CC2NP));
 8001afc:	f001 01a0 	and.w	r1, r1, #160	; 0xa0
  tmpccer &= ~(TIM_CCER_CC2P | TIM_CCER_CC2NP);
 8001b00:	f025 00a0 	bic.w	r0, r5, #160	; 0xa0
  tmpccer |= ((TIM_ICPolarity << 4U) & (TIM_CCER_CC2P | TIM_CCER_CC2NP));
 8001b04:	4301      	orrs	r1, r0

  /* Write to TIMx CCMR1 and CCER registers */
  TIMx->CCMR1 = tmpccmr1 ;
 8001b06:	619a      	str	r2, [r3, #24]
  TIMx->CCER = tmpccer;
 8001b08:	6219      	str	r1, [r3, #32]
    htim->Instance->CCMR1 &= ~TIM_CCMR1_IC2PSC;
 8001b0a:	699a      	ldr	r2, [r3, #24]
 8001b0c:	f422 6240 	bic.w	r2, r2, #3072	; 0xc00
 8001b10:	619a      	str	r2, [r3, #24]
    htim->Instance->CCMR1 |= (sConfig->ICPrescaler << 8U);
 8001b12:	699a      	ldr	r2, [r3, #24]
 8001b14:	ea42 2606 	orr.w	r6, r2, r6, lsl #8
 8001b18:	619e      	str	r6, [r3, #24]
 8001b1a:	e7d2      	b.n	8001ac2 <HAL_TIM_IC_ConfigChannel+0x3a>
  else if (Channel == TIM_CHANNEL_3)
 8001b1c:	2a08      	cmp	r2, #8
{
  uint32_t tmpccmr2 = 0U;
  uint32_t tmpccer = 0U;

  /* Disable the Channel 3: Reset the CC3E Bit */
  TIMx->CCER &= ~TIM_CCER_CC3E;
 8001b1e:	6a1a      	ldr	r2, [r3, #32]
  else if (Channel == TIM_CHANNEL_3)
 8001b20:	d11c      	bne.n	8001b5c <HAL_TIM_IC_ConfigChannel+0xd4>
  TIMx->CCER &= ~TIM_CCER_CC3E;
 8001b22:	f422 7280 	bic.w	r2, r2, #256	; 0x100
 8001b26:	621a      	str	r2, [r3, #32]
  tmpccmr2 = TIMx->CCMR2;
 8001b28:	69da      	ldr	r2, [r3, #28]
  tmpccer = TIMx->CCER;
 8001b2a:	6a1d      	ldr	r5, [r3, #32]

  /* Select the Input */
  tmpccmr2 &= ~TIM_CCMR2_CC3S;
 8001b2c:	f022 0203 	bic.w	r2, r2, #3
  tmpccmr2 |= TIM_ICSelection;
 8001b30:	433a      	orrs	r2, r7

  /* Set the filter */
  tmpccmr2 &= ~TIM_CCMR2_IC3F;
  tmpccmr2 |= ((TIM_ICFilter << 4U) & TIM_CCMR2_IC3F);
 8001b32:	0100      	lsls	r0, r0, #4
 8001b34:	b2c0      	uxtb	r0, r0
  tmpccmr2 &= ~TIM_CCMR2_IC3F;
 8001b36:	f022 02f0 	bic.w	r2, r2, #240	; 0xf0

  /* Select the Polarity and set the CC3E Bit */
  tmpccer &= ~(TIM_CCER_CC3P | TIM_CCER_CC3NP);
  tmpccer |= ((TIM_ICPolarity << 8U) & (TIM_CCER_CC3P | TIM_CCER_CC3NP));
 8001b3a:	0209      	lsls	r1, r1, #8
  tmpccmr2 |= ((TIM_ICFilter << 4U) & TIM_CCMR2_IC3F);
 8001b3c:	4302      	orrs	r2, r0
  tmpccer |= ((TIM_ICPolarity << 8U) & (TIM_CCER_CC3P | TIM_CCER_CC3NP));
 8001b3e:	f401 6120 	and.w	r1, r1, #2560	; 0xa00
  tmpccer &= ~(TIM_CCER_CC3P | TIM_CCER_CC3NP);
 8001b42:	f425 6020 	bic.w	r0, r5, #2560	; 0xa00
  tmpccer |= ((TIM_ICPolarity << 8U) & (TIM_CCER_CC3P | TIM_CCER_CC3NP));
 8001b46:	4301      	orrs	r1, r0

  /* Write to TIMx CCMR2 and CCER registers */
  TIMx->CCMR2 = tmpccmr2;
 8001b48:	61da      	str	r2, [r3, #28]
  TIMx->CCER = tmpccer;
 8001b4a:	6219      	str	r1, [r3, #32]
    htim->Instance->CCMR2 &= ~TIM_CCMR2_IC3PSC;
 8001b4c:	69da      	ldr	r2, [r3, #28]
 8001b4e:	f022 020c 	bic.w	r2, r2, #12
 8001b52:	61da      	str	r2, [r3, #28]
    htim->Instance->CCMR2 |= sConfig->ICPrescaler;
 8001b54:	69da      	ldr	r2, [r3, #28]
 8001b56:	4316      	orrs	r6, r2
    htim->Instance->CCMR2 |= (sConfig->ICPrescaler << 8U);
 8001b58:	61de      	str	r6, [r3, #28]
 8001b5a:	e7b2      	b.n	8001ac2 <HAL_TIM_IC_ConfigChannel+0x3a>
{
  uint32_t tmpccmr2 = 0U;
  uint32_t tmpccer = 0U;

  /* Disable the Channel 4: Reset the CC4E Bit */
  TIMx->CCER &= ~TIM_CCER_CC4E;
 8001b5c:	f422 5280 	bic.w	r2, r2, #4096	; 0x1000
 8001b60:	621a      	str	r2, [r3, #32]
  tmpccmr2 = TIMx->CCMR2;
 8001b62:	69da      	ldr	r2, [r3, #28]
  tmpccer = TIMx->CCER;
 8001b64:	6a1d      	ldr	r5, [r3, #32]

  /* Select the Input */
  tmpccmr2 &= ~TIM_CCMR2_CC4S;
 8001b66:	f422 7240 	bic.w	r2, r2, #768	; 0x300
  tmpccmr2 |= (TIM_ICSelection << 8U);
 8001b6a:	ea42 2207 	orr.w	r2, r2, r7, lsl #8

  /* Set the filter */
  tmpccmr2 &= ~TIM_CCMR2_IC4F;
  tmpccmr2 |= ((TIM_ICFilter << 12U) & TIM_CCMR2_IC4F);
 8001b6e:	0300      	lsls	r0, r0, #12
  tmpccmr2 &= ~TIM_CCMR2_IC4F;
 8001b70:	f422 4270 	bic.w	r2, r2, #61440	; 0xf000
  tmpccmr2 |= ((TIM_ICFilter << 12U) & TIM_CCMR2_IC4F);
 8001b74:	b280      	uxth	r0, r0

  /* Select the Polarity and set the CC4E Bit */
  tmpccer &= ~(TIM_CCER_CC4P | TIM_CCER_CC4NP);
  tmpccer |= ((TIM_ICPolarity << 12U) & (TIM_CCER_CC4P | TIM_CCER_CC4NP));
 8001b76:	0309      	lsls	r1, r1, #12
  tmpccmr2 |= ((TIM_ICFilter << 12U) & TIM_CCMR2_IC4F);
 8001b78:	4310      	orrs	r0, r2
  tmpccer |= ((TIM_ICPolarity << 12U) & (TIM_CCER_CC4P | TIM_CCER_CC4NP));
 8001b7a:	f401 4120 	and.w	r1, r1, #40960	; 0xa000
  tmpccer &= ~(TIM_CCER_CC4P | TIM_CCER_CC4NP);
 8001b7e:	f425 4220 	bic.w	r2, r5, #40960	; 0xa000
  tmpccer |= ((TIM_ICPolarity << 12U) & (TIM_CCER_CC4P | TIM_CCER_CC4NP));
 8001b82:	4311      	orrs	r1, r2

  /* Write to TIMx CCMR2 and CCER registers */
  TIMx->CCMR2 = tmpccmr2;
 8001b84:	61d8      	str	r0, [r3, #28]
  TIMx->CCER = tmpccer ;
 8001b86:	6219      	str	r1, [r3, #32]
    htim->Instance->CCMR2 &= ~TIM_CCMR2_IC4PSC;
 8001b88:	69da      	ldr	r2, [r3, #28]
 8001b8a:	f422 6240 	bic.w	r2, r2, #3072	; 0xc00
 8001b8e:	61da      	str	r2, [r3, #28]
    htim->Instance->CCMR2 |= (sConfig->ICPrescaler << 8U);
 8001b90:	69da      	ldr	r2, [r3, #28]
 8001b92:	ea42 2606 	orr.w	r6, r2, r6, lsl #8
 8001b96:	e7df      	b.n	8001b58 <HAL_TIM_IC_ConfigChannel+0xd0>

08001b98 <TIM_CCxChannelCmd>:
  assert_param(IS_TIM_CHANNELS(Channel));

  tmp = TIM_CCER_CC1E << Channel;

  /* Reset the CCxE Bit */
  TIMx->CCER &= ~tmp;
 8001b98:	6a03      	ldr	r3, [r0, #32]
{
 8001b9a:	b510      	push	{r4, lr}
  tmp = TIM_CCER_CC1E << Channel;
 8001b9c:	2401      	movs	r4, #1
 8001b9e:	408c      	lsls	r4, r1
  TIMx->CCER &= ~tmp;
 8001ba0:	ea23 0304 	bic.w	r3, r3, r4
 8001ba4:	6203      	str	r3, [r0, #32]

  /* Set or reset the CCxE Bit */ 
  TIMx->CCER |=  (uint32_t)(ChannelState << Channel);
 8001ba6:	6a03      	ldr	r3, [r0, #32]
 8001ba8:	408a      	lsls	r2, r1
 8001baa:	431a      	orrs	r2, r3
 8001bac:	6202      	str	r2, [r0, #32]
 8001bae:	bd10      	pop	{r4, pc}

08001bb0 <HAL_TIM_IC_Start_IT>:
{
 8001bb0:	b510      	push	{r4, lr}
 8001bb2:	4604      	mov	r4, r0
  switch (Channel)
 8001bb4:	290c      	cmp	r1, #12
 8001bb6:	d80d      	bhi.n	8001bd4 <HAL_TIM_IC_Start_IT+0x24>
 8001bb8:	e8df f001 	tbb	[pc, r1]
 8001bbc:	0c0c0c07 	.word	0x0c0c0c07
 8001bc0:	0c0c0c17 	.word	0x0c0c0c17
 8001bc4:	0c0c0c1c 	.word	0x0c0c0c1c
 8001bc8:	21          	.byte	0x21
 8001bc9:	00          	.byte	0x00
      __HAL_TIM_ENABLE_IT(htim, TIM_IT_CC1);
 8001bca:	6802      	ldr	r2, [r0, #0]
 8001bcc:	68d3      	ldr	r3, [r2, #12]
 8001bce:	f043 0302 	orr.w	r3, r3, #2
      __HAL_TIM_ENABLE_IT(htim, TIM_IT_CC4);
 8001bd2:	60d3      	str	r3, [r2, #12]
  TIM_CCxChannelCmd(htim->Instance, Channel, TIM_CCx_ENABLE);
 8001bd4:	6820      	ldr	r0, [r4, #0]
 8001bd6:	2201      	movs	r2, #1
 8001bd8:	f7ff ffde 	bl	8001b98 <TIM_CCxChannelCmd>
  __HAL_TIM_ENABLE(htim);  
 8001bdc:	6822      	ldr	r2, [r4, #0]
 8001bde:	6813      	ldr	r3, [r2, #0]
 8001be0:	f043 0301 	orr.w	r3, r3, #1
 8001be4:	6013      	str	r3, [r2, #0]
} 
 8001be6:	2000      	movs	r0, #0
 8001be8:	bd10      	pop	{r4, pc}
      __HAL_TIM_ENABLE_IT(htim, TIM_IT_CC2);
 8001bea:	6802      	ldr	r2, [r0, #0]
 8001bec:	68d3      	ldr	r3, [r2, #12]
 8001bee:	f043 0304 	orr.w	r3, r3, #4
 8001bf2:	e7ee      	b.n	8001bd2 <HAL_TIM_IC_Start_IT+0x22>
      __HAL_TIM_ENABLE_IT(htim, TIM_IT_CC3);
 8001bf4:	6802      	ldr	r2, [r0, #0]
 8001bf6:	68d3      	ldr	r3, [r2, #12]
 8001bf8:	f043 0308 	orr.w	r3, r3, #8
 8001bfc:	e7e9      	b.n	8001bd2 <HAL_TIM_IC_Start_IT+0x22>
      __HAL_TIM_ENABLE_IT(htim, TIM_IT_CC4);
 8001bfe:	6802      	ldr	r2, [r0, #0]
 8001c00:	68d3      	ldr	r3, [r2, #12]
 8001c02:	f043 0310 	orr.w	r3, r3, #16
 8001c06:	e7e4      	b.n	8001bd2 <HAL_TIM_IC_Start_IT+0x22>

08001c08 <HAL_TIMEx_MasterConfigSynchronization>:
  assert_param(IS_TIM_SYNCHRO_INSTANCE(htim->Instance));
  assert_param(IS_TIM_TRGO_SOURCE(sMasterConfig->MasterOutputTrigger));
  assert_param(IS_TIM_MSM_STATE(sMasterConfig->MasterSlaveMode));
  
  /* Check input state */
  __HAL_LOCK(htim);
 8001c08:	f890 303c 	ldrb.w	r3, [r0, #60]	; 0x3c
 8001c0c:	2b01      	cmp	r3, #1
{
 8001c0e:	b530      	push	{r4, r5, lr}
  __HAL_LOCK(htim);
 8001c10:	d020      	beq.n	8001c54 <HAL_TIMEx_MasterConfigSynchronization+0x4c>

 /* Get the TIMx CR2 register value */
  tmpcr2 = htim->Instance->CR2;
 8001c12:	6802      	ldr	r2, [r0, #0]

  /* Get the TIMx SMCR register value */
  tmpsmcr = htim->Instance->SMCR;

  /* If the timer supports ADC synchronization through TRGO2, set the master mode selection 2U */
  if (IS_TIM_TRGO2_INSTANCE(htim->Instance))
 8001c14:	4d10      	ldr	r5, [pc, #64]	; (8001c58 <HAL_TIMEx_MasterConfigSynchronization+0x50>)
  tmpcr2 = htim->Instance->CR2;
 8001c16:	6853      	ldr	r3, [r2, #4]
  tmpsmcr = htim->Instance->SMCR;
 8001c18:	6894      	ldr	r4, [r2, #8]
  if (IS_TIM_TRGO2_INSTANCE(htim->Instance))
 8001c1a:	42aa      	cmp	r2, r5
 8001c1c:	d007      	beq.n	8001c2e <HAL_TIMEx_MasterConfigSynchronization+0x26>
 8001c1e:	f505 6500 	add.w	r5, r5, #2048	; 0x800
 8001c22:	42aa      	cmp	r2, r5
 8001c24:	d003      	beq.n	8001c2e <HAL_TIMEx_MasterConfigSynchronization+0x26>
 8001c26:	f505 55e0 	add.w	r5, r5, #7168	; 0x1c00
 8001c2a:	42aa      	cmp	r2, r5
 8001c2c:	d103      	bne.n	8001c36 <HAL_TIMEx_MasterConfigSynchronization+0x2e>
    assert_param(IS_TIM_TRGO2_SOURCE(sMasterConfig->MasterOutputTrigger2));
    
    /* Clear the MMS2 bits */
    tmpcr2 &= ~TIM_CR2_MMS2;
    /* Select the TRGO2 source*/
    tmpcr2 |= sMasterConfig->MasterOutputTrigger2;
 8001c2e:	684d      	ldr	r5, [r1, #4]
    tmpcr2 &= ~TIM_CR2_MMS2;
 8001c30:	f423 0370 	bic.w	r3, r3, #15728640	; 0xf00000
    tmpcr2 |= sMasterConfig->MasterOutputTrigger2;
 8001c34:	432b      	orrs	r3, r5
  }
  
  /* Reset the MMS Bits */
  tmpcr2 &= ~TIM_CR2_MMS;
  /* Select the TRGO source */
  tmpcr2 |=  sMasterConfig->MasterOutputTrigger;
 8001c36:	680d      	ldr	r5, [r1, #0]

  /* Reset the MSM Bit */
  tmpsmcr &= ~TIM_SMCR_MSM;
  /* Set master mode */
  tmpsmcr |= sMasterConfig->MasterSlaveMode;
 8001c38:	6889      	ldr	r1, [r1, #8]
  tmpcr2 &= ~TIM_CR2_MMS;
 8001c3a:	f023 0370 	bic.w	r3, r3, #112	; 0x70
  tmpcr2 |=  sMasterConfig->MasterOutputTrigger;
 8001c3e:	432b      	orrs	r3, r5
  tmpsmcr &= ~TIM_SMCR_MSM;
 8001c40:	f024 0480 	bic.w	r4, r4, #128	; 0x80
  
  /* Update TIMx CR2 */
  htim->Instance->CR2 = tmpcr2;
 8001c44:	6053      	str	r3, [r2, #4]
  tmpsmcr |= sMasterConfig->MasterSlaveMode;
 8001c46:	4321      	orrs	r1, r4
  
  /* Update TIMx SMCR */
  htim->Instance->SMCR = tmpsmcr;

  __HAL_UNLOCK(htim);
 8001c48:	2300      	movs	r3, #0
  htim->Instance->SMCR = tmpsmcr;
 8001c4a:	6091      	str	r1, [r2, #8]
  __HAL_UNLOCK(htim);
 8001c4c:	f880 303c 	strb.w	r3, [r0, #60]	; 0x3c
  
  return HAL_OK;
 8001c50:	4618      	mov	r0, r3
 8001c52:	bd30      	pop	{r4, r5, pc}
  __HAL_LOCK(htim);
 8001c54:	2002      	movs	r0, #2
} 
 8001c56:	bd30      	pop	{r4, r5, pc}
 8001c58:	40012c00 	.word	0x40012c00

08001c5c <HAL_TIMEx_CommutationCallback>:
 8001c5c:	4770      	bx	lr

08001c5e <HAL_TIMEx_BreakCallback>:
 8001c5e:	4770      	bx	lr

08001c60 <HAL_TIMEx_Break2Callback>:
  * @brief  Hall Break2 detection callback in non blocking mode
  * @param  htim: TIM handle
  * @retval None
  */
__weak void HAL_TIMEx_Break2Callback(TIM_HandleTypeDef *htim)
{
 8001c60:	4770      	bx	lr
	...

08001c64 <UART_SetConfig>:
  * @brief Configure the UART peripheral.
  * @param huart UART handle.
  * @retval HAL status
  */
HAL_StatusTypeDef UART_SetConfig(UART_HandleTypeDef *huart)
{
 8001c64:	b538      	push	{r3, r4, r5, lr}
 8001c66:	4604      	mov	r4, r0
   *  set the M bits according to huart->Init.WordLength value
   *  set PCE and PS bits according to huart->Init.Parity value
   *  set TE and RE bits according to huart->Init.Mode value
   *  set OVER8 bit according to huart->Init.OverSampling value */
  tmpreg = (uint32_t)huart->Init.WordLength | huart->Init.Parity | huart->Init.Mode | huart->Init.OverSampling ;
  MODIFY_REG(huart->Instance->CR1, UART_CR1_FIELDS, tmpreg);
 8001c68:	6805      	ldr	r5, [r0, #0]
  tmpreg = (uint32_t)huart->Init.WordLength | huart->Init.Parity | huart->Init.Mode | huart->Init.OverSampling ;
 8001c6a:	6921      	ldr	r1, [r4, #16]
 8001c6c:	68a2      	ldr	r2, [r4, #8]
 8001c6e:	69c3      	ldr	r3, [r0, #28]
  MODIFY_REG(huart->Instance->CR1, UART_CR1_FIELDS, tmpreg);
 8001c70:	6828      	ldr	r0, [r5, #0]
  tmpreg = (uint32_t)huart->Init.WordLength | huart->Init.Parity | huart->Init.Mode | huart->Init.OverSampling ;
 8001c72:	430a      	orrs	r2, r1
 8001c74:	6961      	ldr	r1, [r4, #20]
 8001c76:	430a      	orrs	r2, r1
  MODIFY_REG(huart->Instance->CR1, UART_CR1_FIELDS, tmpreg);
 8001c78:	4977      	ldr	r1, [pc, #476]	; (8001e58 <UART_SetConfig+0x1f4>)
  tmpreg = (uint32_t)huart->Init.WordLength | huart->Init.Parity | huart->Init.Mode | huart->Init.OverSampling ;
 8001c7a:	431a      	orrs	r2, r3
  MODIFY_REG(huart->Instance->CR1, UART_CR1_FIELDS, tmpreg);
 8001c7c:	4001      	ands	r1, r0
 8001c7e:	430a      	orrs	r2, r1
 8001c80:	602a      	str	r2, [r5, #0]

  /*-------------------------- USART CR2 Configuration -----------------------*/
  /* Configure the UART Stop Bits: Set STOP[13:12] bits according
   * to huart->Init.StopBits value */
  MODIFY_REG(huart->Instance->CR2, USART_CR2_STOP, huart->Init.StopBits);
 8001c82:	686a      	ldr	r2, [r5, #4]
 8001c84:	68e1      	ldr	r1, [r4, #12]
  /* Configure
   * - UART HardWare Flow Control: set CTSE and RTSE bits according
   *   to huart->Init.HwFlowCtl value
   * - one-bit sampling method versus three samples' majority rule according
   *   to huart->Init.OneBitSampling */
  tmpreg = (uint32_t)huart->Init.HwFlowCtl | huart->Init.OneBitSampling ;
 8001c86:	6a20      	ldr	r0, [r4, #32]
  MODIFY_REG(huart->Instance->CR2, USART_CR2_STOP, huart->Init.StopBits);
 8001c88:	f422 5240 	bic.w	r2, r2, #12288	; 0x3000
 8001c8c:	430a      	orrs	r2, r1
 8001c8e:	606a      	str	r2, [r5, #4]
  MODIFY_REG(huart->Instance->CR3, (USART_CR3_RTSE | USART_CR3_CTSE | USART_CR3_ONEBIT), tmpreg);
 8001c90:	68a9      	ldr	r1, [r5, #8]
  tmpreg = (uint32_t)huart->Init.HwFlowCtl | huart->Init.OneBitSampling ;
 8001c92:	69a2      	ldr	r2, [r4, #24]
  MODIFY_REG(huart->Instance->CR3, (USART_CR3_RTSE | USART_CR3_CTSE | USART_CR3_ONEBIT), tmpreg);
 8001c94:	f421 6130 	bic.w	r1, r1, #2816	; 0xb00
  tmpreg = (uint32_t)huart->Init.HwFlowCtl | huart->Init.OneBitSampling ;
 8001c98:	4302      	orrs	r2, r0
  MODIFY_REG(huart->Instance->CR3, (USART_CR3_RTSE | USART_CR3_CTSE | USART_CR3_ONEBIT), tmpreg);
 8001c9a:	430a      	orrs	r2, r1
 8001c9c:	60aa      	str	r2, [r5, #8]

  /*-------------------------- USART BRR Configuration -----------------------*/
  UART_GETCLOCKSOURCE(huart, clocksource);
 8001c9e:	4a6f      	ldr	r2, [pc, #444]	; (8001e5c <UART_SetConfig+0x1f8>)
 8001ca0:	4295      	cmp	r5, r2
 8001ca2:	d112      	bne.n	8001cca <UART_SetConfig+0x66>
 8001ca4:	f502 4258 	add.w	r2, r2, #55296	; 0xd800
 8001ca8:	496d      	ldr	r1, [pc, #436]	; (8001e60 <UART_SetConfig+0x1fc>)
 8001caa:	6b12      	ldr	r2, [r2, #48]	; 0x30
 8001cac:	f002 0203 	and.w	r2, r2, #3

  /* Check UART Over Sampling to set Baud Rate Register */
  if (huart->Init.OverSampling == UART_OVERSAMPLING_8)
 8001cb0:	f5b3 4f00 	cmp.w	r3, #32768	; 0x8000
 8001cb4:	5c8a      	ldrb	r2, [r1, r2]
 8001cb6:	d066      	beq.n	8001d86 <UART_SetConfig+0x122>
    brrtemp |= (uint16_t)((usartdiv & (uint16_t)0x000FU) >> 1U);
    huart->Instance->BRR = brrtemp;
  }
  else
  {
    switch (clocksource)
 8001cb8:	2a08      	cmp	r2, #8
 8001cba:	d819      	bhi.n	8001cf0 <UART_SetConfig+0x8c>
 8001cbc:	e8df f002 	tbb	[pc, r2]
 8001cc0:	189e92c2 	.word	0x189e92c2
 8001cc4:	181818a9 	.word	0x181818a9
 8001cc8:	ac          	.byte	0xac
 8001cc9:	00          	.byte	0x00
  UART_GETCLOCKSOURCE(huart, clocksource);
 8001cca:	4a66      	ldr	r2, [pc, #408]	; (8001e64 <UART_SetConfig+0x200>)
 8001ccc:	4295      	cmp	r5, r2
 8001cce:	d124      	bne.n	8001d1a <UART_SetConfig+0xb6>
 8001cd0:	f502 32e6 	add.w	r2, r2, #117760	; 0x1cc00
 8001cd4:	6b12      	ldr	r2, [r2, #48]	; 0x30
 8001cd6:	f402 3240 	and.w	r2, r2, #196608	; 0x30000
 8001cda:	f5b2 3f80 	cmp.w	r2, #65536	; 0x10000
 8001cde:	f000 80a0 	beq.w	8001e22 <UART_SetConfig+0x1be>
 8001ce2:	d807      	bhi.n	8001cf4 <UART_SetConfig+0x90>
 8001ce4:	2a00      	cmp	r2, #0
 8001ce6:	f000 80aa 	beq.w	8001e3e <UART_SetConfig+0x1da>
  if (huart->Init.OverSampling == UART_OVERSAMPLING_8)
 8001cea:	f5b3 4f00 	cmp.w	r3, #32768	; 0x8000
 8001cee:	d076      	beq.n	8001dde <UART_SetConfig+0x17a>
      case UART_CLOCKSOURCE_LSE:
        huart->Instance->BRR = (uint16_t)(UART_DIV_SAMPLING16(LSE_VALUE, huart->Init.BaudRate));
        break;
      case UART_CLOCKSOURCE_UNDEFINED:
      default:
        ret = HAL_ERROR;
 8001cf0:	2001      	movs	r0, #1
        break;
    }
  }

  return ret;
 8001cf2:	bd38      	pop	{r3, r4, r5, pc}
  UART_GETCLOCKSOURCE(huart, clocksource);
 8001cf4:	f5b2 3f00 	cmp.w	r2, #131072	; 0x20000
 8001cf8:	f000 8099 	beq.w	8001e2e <UART_SetConfig+0x1ca>
 8001cfc:	f5b2 3f40 	cmp.w	r2, #196608	; 0x30000
 8001d00:	d1f3      	bne.n	8001cea <UART_SetConfig+0x86>
  if (huart->Init.OverSampling == UART_OVERSAMPLING_8)
 8001d02:	f5b3 4f00 	cmp.w	r3, #32768	; 0x8000
 8001d06:	d179      	bne.n	8001dfc <UART_SetConfig+0x198>
        usartdiv = (uint16_t)(UART_DIV_SAMPLING8(HSI_VALUE, huart->Init.BaudRate));
 8001d08:	6860      	ldr	r0, [r4, #4]
 8001d0a:	0843      	lsrs	r3, r0, #1
 8001d0c:	f503 0374 	add.w	r3, r3, #15990784	; 0xf40000
 8001d10:	f503 5310 	add.w	r3, r3, #9216	; 0x2400
        usartdiv = (uint16_t)(UART_DIV_SAMPLING8(LSE_VALUE, huart->Init.BaudRate));
 8001d14:	fbb3 f3f0 	udiv	r3, r3, r0
 8001d18:	e054      	b.n	8001dc4 <UART_SetConfig+0x160>
  UART_GETCLOCKSOURCE(huart, clocksource);
 8001d1a:	4a53      	ldr	r2, [pc, #332]	; (8001e68 <UART_SetConfig+0x204>)
 8001d1c:	4295      	cmp	r5, r2
 8001d1e:	d10e      	bne.n	8001d3e <UART_SetConfig+0xda>
 8001d20:	f502 32e4 	add.w	r2, r2, #116736	; 0x1c800
 8001d24:	6b12      	ldr	r2, [r2, #48]	; 0x30
 8001d26:	f402 2240 	and.w	r2, r2, #786432	; 0xc0000
 8001d2a:	f5b2 2f80 	cmp.w	r2, #262144	; 0x40000
 8001d2e:	d078      	beq.n	8001e22 <UART_SetConfig+0x1be>
 8001d30:	d9d8      	bls.n	8001ce4 <UART_SetConfig+0x80>
 8001d32:	f5b2 2f00 	cmp.w	r2, #524288	; 0x80000
 8001d36:	d07a      	beq.n	8001e2e <UART_SetConfig+0x1ca>
 8001d38:	f5b2 2f40 	cmp.w	r2, #786432	; 0xc0000
 8001d3c:	e7e0      	b.n	8001d00 <UART_SetConfig+0x9c>
 8001d3e:	4a4b      	ldr	r2, [pc, #300]	; (8001e6c <UART_SetConfig+0x208>)
 8001d40:	4295      	cmp	r5, r2
 8001d42:	d10e      	bne.n	8001d62 <UART_SetConfig+0xfe>
 8001d44:	f502 32e2 	add.w	r2, r2, #115712	; 0x1c400
 8001d48:	6b12      	ldr	r2, [r2, #48]	; 0x30
 8001d4a:	f402 1240 	and.w	r2, r2, #3145728	; 0x300000
 8001d4e:	f5b2 1f80 	cmp.w	r2, #1048576	; 0x100000
 8001d52:	d066      	beq.n	8001e22 <UART_SetConfig+0x1be>
 8001d54:	d9c6      	bls.n	8001ce4 <UART_SetConfig+0x80>
 8001d56:	f5b2 1f00 	cmp.w	r2, #2097152	; 0x200000
 8001d5a:	d068      	beq.n	8001e2e <UART_SetConfig+0x1ca>
 8001d5c:	f5b2 1f40 	cmp.w	r2, #3145728	; 0x300000
 8001d60:	e7ce      	b.n	8001d00 <UART_SetConfig+0x9c>
 8001d62:	4a43      	ldr	r2, [pc, #268]	; (8001e70 <UART_SetConfig+0x20c>)
 8001d64:	4295      	cmp	r5, r2
 8001d66:	d1c0      	bne.n	8001cea <UART_SetConfig+0x86>
 8001d68:	f502 32e0 	add.w	r2, r2, #114688	; 0x1c000
 8001d6c:	6b12      	ldr	r2, [r2, #48]	; 0x30
 8001d6e:	f402 0240 	and.w	r2, r2, #12582912	; 0xc00000
 8001d72:	f5b2 0f80 	cmp.w	r2, #4194304	; 0x400000
 8001d76:	d054      	beq.n	8001e22 <UART_SetConfig+0x1be>
 8001d78:	d9b4      	bls.n	8001ce4 <UART_SetConfig+0x80>
 8001d7a:	f5b2 0f00 	cmp.w	r2, #8388608	; 0x800000
 8001d7e:	d056      	beq.n	8001e2e <UART_SetConfig+0x1ca>
 8001d80:	f5b2 0f40 	cmp.w	r2, #12582912	; 0xc00000
 8001d84:	e7bc      	b.n	8001d00 <UART_SetConfig+0x9c>
    switch (clocksource)
 8001d86:	2a08      	cmp	r2, #8
 8001d88:	d829      	bhi.n	8001dde <UART_SetConfig+0x17a>
 8001d8a:	a301      	add	r3, pc, #4	; (adr r3, 8001d90 <UART_SetConfig+0x12c>)
 8001d8c:	f853 f022 	ldr.w	pc, [r3, r2, lsl #2]
 8001d90:	08001db5 	.word	0x08001db5
 8001d94:	08001dd9 	.word	0x08001dd9
 8001d98:	08001d09 	.word	0x08001d09
 8001d9c:	08001ddf 	.word	0x08001ddf
 8001da0:	08001e29 	.word	0x08001e29
 8001da4:	08001ddf 	.word	0x08001ddf
 8001da8:	08001ddf 	.word	0x08001ddf
 8001dac:	08001ddf 	.word	0x08001ddf
 8001db0:	08001e35 	.word	0x08001e35
        usartdiv = (uint16_t)(UART_DIV_SAMPLING8(HAL_RCC_GetPCLK1Freq(), huart->Init.BaudRate));
 8001db4:	f7ff fb62 	bl	800147c <HAL_RCC_GetPCLK1Freq>
        usartdiv = (uint16_t)(UART_DIV_SAMPLING8(HAL_RCC_GetPCLK2Freq(), huart->Init.BaudRate));
 8001db8:	6861      	ldr	r1, [r4, #4]
 8001dba:	084a      	lsrs	r2, r1, #1
 8001dbc:	eb02 0340 	add.w	r3, r2, r0, lsl #1
 8001dc0:	fbb3 f3f1 	udiv	r3, r3, r1
 8001dc4:	b29b      	uxth	r3, r3
  HAL_StatusTypeDef ret               = HAL_OK;
 8001dc6:	2000      	movs	r0, #0
    brrtemp = usartdiv & 0xFFF0U;
 8001dc8:	f023 020f 	bic.w	r2, r3, #15
    huart->Instance->BRR = brrtemp;
 8001dcc:	6821      	ldr	r1, [r4, #0]
    brrtemp |= (uint16_t)((usartdiv & (uint16_t)0x000FU) >> 1U);
 8001dce:	f3c3 0342 	ubfx	r3, r3, #1, #3
    huart->Instance->BRR = brrtemp;
 8001dd2:	4313      	orrs	r3, r2
 8001dd4:	60cb      	str	r3, [r1, #12]
 8001dd6:	bd38      	pop	{r3, r4, r5, pc}
        usartdiv = (uint16_t)(UART_DIV_SAMPLING8(HAL_RCC_GetPCLK2Freq(), huart->Init.BaudRate));
 8001dd8:	f7ff fb68 	bl	80014ac <HAL_RCC_GetPCLK2Freq>
 8001ddc:	e7ec      	b.n	8001db8 <UART_SetConfig+0x154>
        ret = HAL_ERROR;
 8001dde:	2001      	movs	r0, #1
  uint16_t usartdiv                   = 0x0000U;
 8001de0:	2300      	movs	r3, #0
 8001de2:	e7f1      	b.n	8001dc8 <UART_SetConfig+0x164>
        huart->Instance->BRR = (uint16_t)(UART_DIV_SAMPLING16(HAL_RCC_GetPCLK2Freq(), huart->Init.BaudRate));
 8001de4:	f7ff fb62 	bl	80014ac <HAL_RCC_GetPCLK2Freq>
 8001de8:	6863      	ldr	r3, [r4, #4]
 8001dea:	eb00 0053 	add.w	r0, r0, r3, lsr #1
 8001dee:	fbb0 f0f3 	udiv	r0, r0, r3
 8001df2:	4b1a      	ldr	r3, [pc, #104]	; (8001e5c <UART_SetConfig+0x1f8>)
 8001df4:	b280      	uxth	r0, r0
 8001df6:	60d8      	str	r0, [r3, #12]
  HAL_StatusTypeDef ret               = HAL_OK;
 8001df8:	2000      	movs	r0, #0
        break;
 8001dfa:	bd38      	pop	{r3, r4, r5, pc}
        huart->Instance->BRR = (uint16_t)(UART_DIV_SAMPLING16(HSI_VALUE, huart->Init.BaudRate));
 8001dfc:	6862      	ldr	r2, [r4, #4]
 8001dfe:	0853      	lsrs	r3, r2, #1
 8001e00:	f503 03f4 	add.w	r3, r3, #7995392	; 0x7a0000
 8001e04:	f503 5390 	add.w	r3, r3, #4608	; 0x1200
        huart->Instance->BRR = (uint16_t)(UART_DIV_SAMPLING16(LSE_VALUE, huart->Init.BaudRate));
 8001e08:	fbb3 f3f2 	udiv	r3, r3, r2
 8001e0c:	b29b      	uxth	r3, r3
 8001e0e:	60eb      	str	r3, [r5, #12]
 8001e10:	e7f2      	b.n	8001df8 <UART_SetConfig+0x194>
        huart->Instance->BRR = (uint16_t)(UART_DIV_SAMPLING16(HAL_RCC_GetSysClockFreq(), huart->Init.BaudRate));
 8001e12:	f7ff fa3f 	bl	8001294 <HAL_RCC_GetSysClockFreq>
 8001e16:	e017      	b.n	8001e48 <UART_SetConfig+0x1e4>
        huart->Instance->BRR = (uint16_t)(UART_DIV_SAMPLING16(LSE_VALUE, huart->Init.BaudRate));
 8001e18:	6862      	ldr	r2, [r4, #4]
 8001e1a:	0853      	lsrs	r3, r2, #1
 8001e1c:	f503 4300 	add.w	r3, r3, #32768	; 0x8000
 8001e20:	e7f2      	b.n	8001e08 <UART_SetConfig+0x1a4>
  if (huart->Init.OverSampling == UART_OVERSAMPLING_8)
 8001e22:	f5b3 4f00 	cmp.w	r3, #32768	; 0x8000
 8001e26:	d1f4      	bne.n	8001e12 <UART_SetConfig+0x1ae>
        usartdiv = (uint16_t)(UART_DIV_SAMPLING8(HAL_RCC_GetSysClockFreq(), huart->Init.BaudRate));
 8001e28:	f7ff fa34 	bl	8001294 <HAL_RCC_GetSysClockFreq>
 8001e2c:	e7c4      	b.n	8001db8 <UART_SetConfig+0x154>
  if (huart->Init.OverSampling == UART_OVERSAMPLING_8)
 8001e2e:	f5b3 4f00 	cmp.w	r3, #32768	; 0x8000
 8001e32:	d1f1      	bne.n	8001e18 <UART_SetConfig+0x1b4>
        usartdiv = (uint16_t)(UART_DIV_SAMPLING8(LSE_VALUE, huart->Init.BaudRate));
 8001e34:	6860      	ldr	r0, [r4, #4]
 8001e36:	0843      	lsrs	r3, r0, #1
 8001e38:	f503 3380 	add.w	r3, r3, #65536	; 0x10000
 8001e3c:	e76a      	b.n	8001d14 <UART_SetConfig+0xb0>
  if (huart->Init.OverSampling == UART_OVERSAMPLING_8)
 8001e3e:	f5b3 4f00 	cmp.w	r3, #32768	; 0x8000
 8001e42:	d0b7      	beq.n	8001db4 <UART_SetConfig+0x150>
        huart->Instance->BRR = (uint16_t)(UART_DIV_SAMPLING16(HAL_RCC_GetPCLK1Freq(), huart->Init.BaudRate));
 8001e44:	f7ff fb1a 	bl	800147c <HAL_RCC_GetPCLK1Freq>
        huart->Instance->BRR = (uint16_t)(UART_DIV_SAMPLING16(HAL_RCC_GetSysClockFreq(), huart->Init.BaudRate));
 8001e48:	6863      	ldr	r3, [r4, #4]
 8001e4a:	eb00 0053 	add.w	r0, r0, r3, lsr #1
 8001e4e:	fbb0 f0f3 	udiv	r0, r0, r3
 8001e52:	b280      	uxth	r0, r0
 8001e54:	60e8      	str	r0, [r5, #12]
 8001e56:	e7cf      	b.n	8001df8 <UART_SetConfig+0x194>
 8001e58:	efff69f3 	.word	0xefff69f3
 8001e5c:	40013800 	.word	0x40013800
 8001e60:	08002e3c 	.word	0x08002e3c
 8001e64:	40004400 	.word	0x40004400
 8001e68:	40004800 	.word	0x40004800
 8001e6c:	40004c00 	.word	0x40004c00
 8001e70:	40005000 	.word	0x40005000

08001e74 <UART_AdvFeatureConfig>:
{
  /* Check whether the set of advanced features to configure is properly set */
  assert_param(IS_UART_ADVFEATURE_INIT(huart->AdvancedInit.AdvFeatureInit));

  /* if required, configure TX pin active level inversion */
  if(HAL_IS_BIT_SET(huart->AdvancedInit.AdvFeatureInit, UART_ADVFEATURE_TXINVERT_INIT))
 8001e74:	6a43      	ldr	r3, [r0, #36]	; 0x24
 8001e76:	07da      	lsls	r2, r3, #31
{
 8001e78:	b510      	push	{r4, lr}
  if(HAL_IS_BIT_SET(huart->AdvancedInit.AdvFeatureInit, UART_ADVFEATURE_TXINVERT_INIT))
 8001e7a:	d506      	bpl.n	8001e8a <UART_AdvFeatureConfig+0x16>
  {
    assert_param(IS_UART_ADVFEATURE_TXINV(huart->AdvancedInit.TxPinLevelInvert));
    MODIFY_REG(huart->Instance->CR2, USART_CR2_TXINV, huart->AdvancedInit.TxPinLevelInvert);
 8001e7c:	6801      	ldr	r1, [r0, #0]
 8001e7e:	6a84      	ldr	r4, [r0, #40]	; 0x28
 8001e80:	684a      	ldr	r2, [r1, #4]
 8001e82:	f422 3200 	bic.w	r2, r2, #131072	; 0x20000
 8001e86:	4322      	orrs	r2, r4
 8001e88:	604a      	str	r2, [r1, #4]
  }

  /* if required, configure RX pin active level inversion */
  if(HAL_IS_BIT_SET(huart->AdvancedInit.AdvFeatureInit, UART_ADVFEATURE_RXINVERT_INIT))
 8001e8a:	079c      	lsls	r4, r3, #30
 8001e8c:	d506      	bpl.n	8001e9c <UART_AdvFeatureConfig+0x28>
  {
    assert_param(IS_UART_ADVFEATURE_RXINV(huart->AdvancedInit.RxPinLevelInvert));
    MODIFY_REG(huart->Instance->CR2, USART_CR2_RXINV, huart->AdvancedInit.RxPinLevelInvert);
 8001e8e:	6801      	ldr	r1, [r0, #0]
 8001e90:	6ac4      	ldr	r4, [r0, #44]	; 0x2c
 8001e92:	684a      	ldr	r2, [r1, #4]
 8001e94:	f422 3280 	bic.w	r2, r2, #65536	; 0x10000
 8001e98:	4322      	orrs	r2, r4
 8001e9a:	604a      	str	r2, [r1, #4]
  }

  /* if required, configure data inversion */
  if(HAL_IS_BIT_SET(huart->AdvancedInit.AdvFeatureInit, UART_ADVFEATURE_DATAINVERT_INIT))
 8001e9c:	0759      	lsls	r1, r3, #29
 8001e9e:	d506      	bpl.n	8001eae <UART_AdvFeatureConfig+0x3a>
  {
    assert_param(IS_UART_ADVFEATURE_DATAINV(huart->AdvancedInit.DataInvert));
    MODIFY_REG(huart->Instance->CR2, USART_CR2_DATAINV, huart->AdvancedInit.DataInvert);
 8001ea0:	6801      	ldr	r1, [r0, #0]
 8001ea2:	6b04      	ldr	r4, [r0, #48]	; 0x30
 8001ea4:	684a      	ldr	r2, [r1, #4]
 8001ea6:	f422 2280 	bic.w	r2, r2, #262144	; 0x40000
 8001eaa:	4322      	orrs	r2, r4
 8001eac:	604a      	str	r2, [r1, #4]
  }

  /* if required, configure RX/TX pins swap */
  if(HAL_IS_BIT_SET(huart->AdvancedInit.AdvFeatureInit, UART_ADVFEATURE_SWAP_INIT))
 8001eae:	071a      	lsls	r2, r3, #28
 8001eb0:	d506      	bpl.n	8001ec0 <UART_AdvFeatureConfig+0x4c>
  {
    assert_param(IS_UART_ADVFEATURE_SWAP(huart->AdvancedInit.Swap));
    MODIFY_REG(huart->Instance->CR2, USART_CR2_SWAP, huart->AdvancedInit.Swap);
 8001eb2:	6801      	ldr	r1, [r0, #0]
 8001eb4:	6b44      	ldr	r4, [r0, #52]	; 0x34
 8001eb6:	684a      	ldr	r2, [r1, #4]
 8001eb8:	f422 4200 	bic.w	r2, r2, #32768	; 0x8000
 8001ebc:	4322      	orrs	r2, r4
 8001ebe:	604a      	str	r2, [r1, #4]
  }

  /* if required, configure RX overrun detection disabling */
  if(HAL_IS_BIT_SET(huart->AdvancedInit.AdvFeatureInit, UART_ADVFEATURE_RXOVERRUNDISABLE_INIT))
 8001ec0:	06dc      	lsls	r4, r3, #27
 8001ec2:	d506      	bpl.n	8001ed2 <UART_AdvFeatureConfig+0x5e>
  {
    assert_param(IS_UART_OVERRUN(huart->AdvancedInit.OverrunDisable));
    MODIFY_REG(huart->Instance->CR3, USART_CR3_OVRDIS, huart->AdvancedInit.OverrunDisable);
 8001ec4:	6801      	ldr	r1, [r0, #0]
 8001ec6:	6b84      	ldr	r4, [r0, #56]	; 0x38
 8001ec8:	688a      	ldr	r2, [r1, #8]
 8001eca:	f422 5280 	bic.w	r2, r2, #4096	; 0x1000
 8001ece:	4322      	orrs	r2, r4
 8001ed0:	608a      	str	r2, [r1, #8]
  }

  /* if required, configure DMA disabling on reception error */
  if(HAL_IS_BIT_SET(huart->AdvancedInit.AdvFeatureInit, UART_ADVFEATURE_DMADISABLEONERROR_INIT))
 8001ed2:	0699      	lsls	r1, r3, #26
 8001ed4:	d506      	bpl.n	8001ee4 <UART_AdvFeatureConfig+0x70>
  {
    assert_param(IS_UART_ADVFEATURE_DMAONRXERROR(huart->AdvancedInit.DMADisableonRxError));
    MODIFY_REG(huart->Instance->CR3, USART_CR3_DDRE, huart->AdvancedInit.DMADisableonRxError);
 8001ed6:	6801      	ldr	r1, [r0, #0]
 8001ed8:	6bc4      	ldr	r4, [r0, #60]	; 0x3c
 8001eda:	688a      	ldr	r2, [r1, #8]
 8001edc:	f422 5200 	bic.w	r2, r2, #8192	; 0x2000
 8001ee0:	4322      	orrs	r2, r4
 8001ee2:	608a      	str	r2, [r1, #8]
  }

  /* if required, configure auto Baud rate detection scheme */
  if(HAL_IS_BIT_SET(huart->AdvancedInit.AdvFeatureInit, UART_ADVFEATURE_AUTOBAUDRATE_INIT))
 8001ee4:	065a      	lsls	r2, r3, #25
 8001ee6:	d50f      	bpl.n	8001f08 <UART_AdvFeatureConfig+0x94>
  {
    assert_param(IS_USART_AUTOBAUDRATE_DETECTION_INSTANCE(huart->Instance));
    assert_param(IS_UART_ADVFEATURE_AUTOBAUDRATE(huart->AdvancedInit.AutoBaudRateEnable));
    MODIFY_REG(huart->Instance->CR2, USART_CR2_ABREN, huart->AdvancedInit.AutoBaudRateEnable);
 8001ee8:	6801      	ldr	r1, [r0, #0]
 8001eea:	6c04      	ldr	r4, [r0, #64]	; 0x40
 8001eec:	684a      	ldr	r2, [r1, #4]
 8001eee:	f422 1280 	bic.w	r2, r2, #1048576	; 0x100000
 8001ef2:	4322      	orrs	r2, r4
    /* set auto Baudrate detection parameters if detection is enabled */
    if(huart->AdvancedInit.AutoBaudRateEnable == UART_ADVFEATURE_AUTOBAUDRATE_ENABLE)
 8001ef4:	f5b4 1f80 	cmp.w	r4, #1048576	; 0x100000
    MODIFY_REG(huart->Instance->CR2, USART_CR2_ABREN, huart->AdvancedInit.AutoBaudRateEnable);
 8001ef8:	604a      	str	r2, [r1, #4]
    if(huart->AdvancedInit.AutoBaudRateEnable == UART_ADVFEATURE_AUTOBAUDRATE_ENABLE)
 8001efa:	d105      	bne.n	8001f08 <UART_AdvFeatureConfig+0x94>
    {
      assert_param(IS_UART_ADVFEATURE_AUTOBAUDRATEMODE(huart->AdvancedInit.AutoBaudRateMode));
      MODIFY_REG(huart->Instance->CR2, USART_CR2_ABRMODE, huart->AdvancedInit.AutoBaudRateMode);
 8001efc:	684a      	ldr	r2, [r1, #4]
 8001efe:	6c44      	ldr	r4, [r0, #68]	; 0x44
 8001f00:	f422 02c0 	bic.w	r2, r2, #6291456	; 0x600000
 8001f04:	4322      	orrs	r2, r4
 8001f06:	604a      	str	r2, [r1, #4]
    }
  }

  /* if required, configure MSB first on communication line */
  if(HAL_IS_BIT_SET(huart->AdvancedInit.AdvFeatureInit, UART_ADVFEATURE_MSBFIRST_INIT))
 8001f08:	061b      	lsls	r3, r3, #24
 8001f0a:	d506      	bpl.n	8001f1a <UART_AdvFeatureConfig+0xa6>
  {
    assert_param(IS_UART_ADVFEATURE_MSBFIRST(huart->AdvancedInit.MSBFirst));
    MODIFY_REG(huart->Instance->CR2, USART_CR2_MSBFIRST, huart->AdvancedInit.MSBFirst);
 8001f0c:	6802      	ldr	r2, [r0, #0]
 8001f0e:	6c81      	ldr	r1, [r0, #72]	; 0x48
 8001f10:	6853      	ldr	r3, [r2, #4]
 8001f12:	f423 2300 	bic.w	r3, r3, #524288	; 0x80000
 8001f16:	430b      	orrs	r3, r1
 8001f18:	6053      	str	r3, [r2, #4]
 8001f1a:	bd10      	pop	{r4, pc}

08001f1c <UART_WaitOnFlagUntilTimeout>:
  * @param  Tickstart Tick start value
  * @param  Timeout Timeout duration
  * @retval HAL status
  */
HAL_StatusTypeDef UART_WaitOnFlagUntilTimeout(UART_HandleTypeDef *huart, uint32_t Flag, FlagStatus Status, uint32_t Tickstart, uint32_t Timeout)
{
 8001f1c:	e92d 41f0 	stmdb	sp!, {r4, r5, r6, r7, r8, lr}
 8001f20:	9d06      	ldr	r5, [sp, #24]
 8001f22:	4604      	mov	r4, r0
 8001f24:	460f      	mov	r7, r1
 8001f26:	4616      	mov	r6, r2
 8001f28:	4698      	mov	r8, r3
  /* Wait until flag is set */
  while((__HAL_UART_GET_FLAG(huart, Flag) ? SET : RESET) == Status)
 8001f2a:	6821      	ldr	r1, [r4, #0]
 8001f2c:	69ca      	ldr	r2, [r1, #28]
 8001f2e:	ea37 0302 	bics.w	r3, r7, r2
 8001f32:	bf0c      	ite	eq
 8001f34:	2201      	moveq	r2, #1
 8001f36:	2200      	movne	r2, #0
 8001f38:	42b2      	cmp	r2, r6
 8001f3a:	d002      	beq.n	8001f42 <UART_WaitOnFlagUntilTimeout+0x26>
        __HAL_UNLOCK(huart);
        return HAL_TIMEOUT;
      }
    }
  }
  return HAL_OK;
 8001f3c:	2000      	movs	r0, #0
}
 8001f3e:	e8bd 81f0 	ldmia.w	sp!, {r4, r5, r6, r7, r8, pc}
    if(Timeout != HAL_MAX_DELAY)
 8001f42:	1c6b      	adds	r3, r5, #1
 8001f44:	d0f2      	beq.n	8001f2c <UART_WaitOnFlagUntilTimeout+0x10>
      if((Timeout == 0U) || ((HAL_GetTick()-Tickstart) > Timeout))
 8001f46:	b99d      	cbnz	r5, 8001f70 <UART_WaitOnFlagUntilTimeout+0x54>
        CLEAR_BIT(huart->Instance->CR1, (USART_CR1_RXNEIE | USART_CR1_PEIE | USART_CR1_TXEIE));
 8001f48:	6823      	ldr	r3, [r4, #0]
 8001f4a:	681a      	ldr	r2, [r3, #0]
 8001f4c:	f422 72d0 	bic.w	r2, r2, #416	; 0x1a0
 8001f50:	601a      	str	r2, [r3, #0]
        CLEAR_BIT(huart->Instance->CR3, USART_CR3_EIE);
 8001f52:	689a      	ldr	r2, [r3, #8]
 8001f54:	f022 0201 	bic.w	r2, r2, #1
 8001f58:	609a      	str	r2, [r3, #8]
        huart->gState  = HAL_UART_STATE_READY;
 8001f5a:	2320      	movs	r3, #32
 8001f5c:	f884 3069 	strb.w	r3, [r4, #105]	; 0x69
        huart->RxState = HAL_UART_STATE_READY;
 8001f60:	f884 306a 	strb.w	r3, [r4, #106]	; 0x6a
        __HAL_UNLOCK(huart);
 8001f64:	2300      	movs	r3, #0
 8001f66:	f884 3068 	strb.w	r3, [r4, #104]	; 0x68
 8001f6a:	2003      	movs	r0, #3
 8001f6c:	e8bd 81f0 	ldmia.w	sp!, {r4, r5, r6, r7, r8, pc}
      if((Timeout == 0U) || ((HAL_GetTick()-Tickstart) > Timeout))
 8001f70:	f7fe fda6 	bl	8000ac0 <HAL_GetTick>
 8001f74:	eba0 0008 	sub.w	r0, r0, r8
 8001f78:	4285      	cmp	r5, r0
 8001f7a:	d2d6      	bcs.n	8001f2a <UART_WaitOnFlagUntilTimeout+0xe>
 8001f7c:	e7e4      	b.n	8001f48 <UART_WaitOnFlagUntilTimeout+0x2c>

08001f7e <HAL_UART_Transmit>:
{
 8001f7e:	e92d 41f3 	stmdb	sp!, {r0, r1, r4, r5, r6, r7, r8, lr}
 8001f82:	461f      	mov	r7, r3
  if(huart->gState == HAL_UART_STATE_READY)
 8001f84:	f890 3069 	ldrb.w	r3, [r0, #105]	; 0x69
 8001f88:	2b20      	cmp	r3, #32
{
 8001f8a:	4604      	mov	r4, r0
 8001f8c:	460d      	mov	r5, r1
 8001f8e:	4690      	mov	r8, r2
  if(huart->gState == HAL_UART_STATE_READY)
 8001f90:	d14c      	bne.n	800202c <HAL_UART_Transmit+0xae>
    if((pData == NULL ) || (Size == 0U))
 8001f92:	2900      	cmp	r1, #0
 8001f94:	d048      	beq.n	8002028 <HAL_UART_Transmit+0xaa>
 8001f96:	2a00      	cmp	r2, #0
 8001f98:	d046      	beq.n	8002028 <HAL_UART_Transmit+0xaa>
    __HAL_LOCK(huart);
 8001f9a:	f890 3068 	ldrb.w	r3, [r0, #104]	; 0x68
 8001f9e:	2b01      	cmp	r3, #1
 8001fa0:	d044      	beq.n	800202c <HAL_UART_Transmit+0xae>
 8001fa2:	2301      	movs	r3, #1
 8001fa4:	f880 3068 	strb.w	r3, [r0, #104]	; 0x68
    huart->ErrorCode = HAL_UART_ERROR_NONE;
 8001fa8:	2300      	movs	r3, #0
 8001faa:	66c3      	str	r3, [r0, #108]	; 0x6c
    huart->gState = HAL_UART_STATE_BUSY_TX;
 8001fac:	2321      	movs	r3, #33	; 0x21
 8001fae:	f880 3069 	strb.w	r3, [r0, #105]	; 0x69
    tickstart = HAL_GetTick();
 8001fb2:	f7fe fd85 	bl	8000ac0 <HAL_GetTick>
    huart->TxXferSize = Size;
 8001fb6:	f8a4 8050 	strh.w	r8, [r4, #80]	; 0x50
    tickstart = HAL_GetTick();
 8001fba:	4606      	mov	r6, r0
    huart->TxXferCount = Size;
 8001fbc:	f8a4 8052 	strh.w	r8, [r4, #82]	; 0x52
    while(huart->TxXferCount > 0U)
 8001fc0:	f8b4 2052 	ldrh.w	r2, [r4, #82]	; 0x52
 8001fc4:	b292      	uxth	r2, r2
 8001fc6:	b962      	cbnz	r2, 8001fe2 <HAL_UART_Transmit+0x64>
    if(UART_WaitOnFlagUntilTimeout(huart, UART_FLAG_TC, RESET, tickstart, Timeout) != HAL_OK)
 8001fc8:	9700      	str	r7, [sp, #0]
 8001fca:	4633      	mov	r3, r6
 8001fcc:	2140      	movs	r1, #64	; 0x40
 8001fce:	4620      	mov	r0, r4
 8001fd0:	f7ff ffa4 	bl	8001f1c <UART_WaitOnFlagUntilTimeout>
 8001fd4:	b998      	cbnz	r0, 8001ffe <HAL_UART_Transmit+0x80>
    huart->gState = HAL_UART_STATE_READY;
 8001fd6:	2320      	movs	r3, #32
 8001fd8:	f884 3069 	strb.w	r3, [r4, #105]	; 0x69
    __HAL_UNLOCK(huart);
 8001fdc:	f884 0068 	strb.w	r0, [r4, #104]	; 0x68
    return HAL_OK;
 8001fe0:	e00e      	b.n	8002000 <HAL_UART_Transmit+0x82>
      huart->TxXferCount--;
 8001fe2:	f8b4 3052 	ldrh.w	r3, [r4, #82]	; 0x52
      if(UART_WaitOnFlagUntilTimeout(huart, UART_FLAG_TXE, RESET, tickstart, Timeout) != HAL_OK)
 8001fe6:	9700      	str	r7, [sp, #0]
      huart->TxXferCount--;
 8001fe8:	3b01      	subs	r3, #1
 8001fea:	b29b      	uxth	r3, r3
 8001fec:	f8a4 3052 	strh.w	r3, [r4, #82]	; 0x52
      if(UART_WaitOnFlagUntilTimeout(huart, UART_FLAG_TXE, RESET, tickstart, Timeout) != HAL_OK)
 8001ff0:	2200      	movs	r2, #0
 8001ff2:	4633      	mov	r3, r6
 8001ff4:	2180      	movs	r1, #128	; 0x80
 8001ff6:	4620      	mov	r0, r4
 8001ff8:	f7ff ff90 	bl	8001f1c <UART_WaitOnFlagUntilTimeout>
 8001ffc:	b118      	cbz	r0, 8002006 <HAL_UART_Transmit+0x88>
        return HAL_TIMEOUT;
 8001ffe:	2003      	movs	r0, #3
}
 8002000:	b002      	add	sp, #8
 8002002:	e8bd 81f0 	ldmia.w	sp!, {r4, r5, r6, r7, r8, pc}
      if ((huart->Init.WordLength == UART_WORDLENGTH_9B) && (huart->Init.Parity == UART_PARITY_NONE))
 8002006:	68a3      	ldr	r3, [r4, #8]
 8002008:	6822      	ldr	r2, [r4, #0]
 800200a:	f5b3 5f80 	cmp.w	r3, #4096	; 0x1000
 800200e:	d107      	bne.n	8002020 <HAL_UART_Transmit+0xa2>
 8002010:	6923      	ldr	r3, [r4, #16]
 8002012:	b92b      	cbnz	r3, 8002020 <HAL_UART_Transmit+0xa2>
        huart->Instance->TDR = (*tmp & (uint16_t)0x01FFU);
 8002014:	f835 3b02 	ldrh.w	r3, [r5], #2
 8002018:	f3c3 0308 	ubfx	r3, r3, #0, #9
 800201c:	8513      	strh	r3, [r2, #40]	; 0x28
        pData += 2U;
 800201e:	e7cf      	b.n	8001fc0 <HAL_UART_Transmit+0x42>
        huart->Instance->TDR = (*pData++ & (uint8_t)0xFFU);
 8002020:	782b      	ldrb	r3, [r5, #0]
 8002022:	8513      	strh	r3, [r2, #40]	; 0x28
 8002024:	3501      	adds	r5, #1
 8002026:	e7cb      	b.n	8001fc0 <HAL_UART_Transmit+0x42>
      return  HAL_ERROR;
 8002028:	2001      	movs	r0, #1
 800202a:	e7e9      	b.n	8002000 <HAL_UART_Transmit+0x82>
    return HAL_BUSY;
 800202c:	2002      	movs	r0, #2
 800202e:	e7e7      	b.n	8002000 <HAL_UART_Transmit+0x82>

08002030 <UART_CheckIdleState>:
{
 8002030:	b573      	push	{r0, r1, r4, r5, r6, lr}
 8002032:	4604      	mov	r4, r0
  huart->ErrorCode = HAL_UART_ERROR_NONE;
 8002034:	2600      	movs	r6, #0
 8002036:	66c6      	str	r6, [r0, #108]	; 0x6c
  tickstart = HAL_GetTick();
 8002038:	f7fe fd42 	bl	8000ac0 <HAL_GetTick>
  if((huart->Instance->CR1 & USART_CR1_TE) == USART_CR1_TE)
 800203c:	6823      	ldr	r3, [r4, #0]
 800203e:	681b      	ldr	r3, [r3, #0]
 8002040:	071a      	lsls	r2, r3, #28
  tickstart = HAL_GetTick();
 8002042:	4605      	mov	r5, r0
  if((huart->Instance->CR1 & USART_CR1_TE) == USART_CR1_TE)
 8002044:	d417      	bmi.n	8002076 <UART_CheckIdleState+0x46>
  if((huart->Instance->CR1 & USART_CR1_RE) == USART_CR1_RE)
 8002046:	6823      	ldr	r3, [r4, #0]
 8002048:	681b      	ldr	r3, [r3, #0]
 800204a:	075b      	lsls	r3, r3, #29
 800204c:	d50a      	bpl.n	8002064 <UART_CheckIdleState+0x34>
    if(UART_WaitOnFlagUntilTimeout(huart, USART_ISR_REACK, RESET, tickstart, HAL_UART_TIMEOUT_VALUE) != HAL_OK)
 800204e:	f06f 437e 	mvn.w	r3, #4261412864	; 0xfe000000
 8002052:	9300      	str	r3, [sp, #0]
 8002054:	2200      	movs	r2, #0
 8002056:	462b      	mov	r3, r5
 8002058:	f44f 0180 	mov.w	r1, #4194304	; 0x400000
 800205c:	4620      	mov	r0, r4
 800205e:	f7ff ff5d 	bl	8001f1c <UART_WaitOnFlagUntilTimeout>
 8002062:	b9a0      	cbnz	r0, 800208e <UART_CheckIdleState+0x5e>
  huart->gState  = HAL_UART_STATE_READY;
 8002064:	2320      	movs	r3, #32
  __HAL_UNLOCK(huart);
 8002066:	2000      	movs	r0, #0
  huart->gState  = HAL_UART_STATE_READY;
 8002068:	f884 3069 	strb.w	r3, [r4, #105]	; 0x69
  __HAL_UNLOCK(huart);
 800206c:	f884 0068 	strb.w	r0, [r4, #104]	; 0x68
  huart->RxState = HAL_UART_STATE_READY;
 8002070:	f884 306a 	strb.w	r3, [r4, #106]	; 0x6a
  return HAL_OK;
 8002074:	e00c      	b.n	8002090 <UART_CheckIdleState+0x60>
    if(UART_WaitOnFlagUntilTimeout(huart, USART_ISR_TEACK, RESET, tickstart, HAL_UART_TIMEOUT_VALUE) != HAL_OK)
 8002076:	f06f 437e 	mvn.w	r3, #4261412864	; 0xfe000000
 800207a:	9300      	str	r3, [sp, #0]
 800207c:	4632      	mov	r2, r6
 800207e:	4603      	mov	r3, r0
 8002080:	f44f 1100 	mov.w	r1, #2097152	; 0x200000
 8002084:	4620      	mov	r0, r4
 8002086:	f7ff ff49 	bl	8001f1c <UART_WaitOnFlagUntilTimeout>
 800208a:	2800      	cmp	r0, #0
 800208c:	d0db      	beq.n	8002046 <UART_CheckIdleState+0x16>
      return HAL_TIMEOUT;
 800208e:	2003      	movs	r0, #3
}
 8002090:	b002      	add	sp, #8
 8002092:	bd70      	pop	{r4, r5, r6, pc}

08002094 <HAL_UART_Init>:
{
 8002094:	b510      	push	{r4, lr}
  if(huart == NULL)
 8002096:	4604      	mov	r4, r0
 8002098:	b360      	cbz	r0, 80020f4 <HAL_UART_Init+0x60>
  if(huart->gState == HAL_UART_STATE_RESET)
 800209a:	f890 3069 	ldrb.w	r3, [r0, #105]	; 0x69
 800209e:	f003 02ff 	and.w	r2, r3, #255	; 0xff
 80020a2:	b91b      	cbnz	r3, 80020ac <HAL_UART_Init+0x18>
    huart->Lock = HAL_UNLOCKED;
 80020a4:	f880 2068 	strb.w	r2, [r0, #104]	; 0x68
    HAL_UART_MspInit(huart);
 80020a8:	f000 f9bc 	bl	8002424 <HAL_UART_MspInit>
  __HAL_UART_DISABLE(huart);
 80020ac:	6822      	ldr	r2, [r4, #0]
  huart->gState = HAL_UART_STATE_BUSY;
 80020ae:	2324      	movs	r3, #36	; 0x24
 80020b0:	f884 3069 	strb.w	r3, [r4, #105]	; 0x69
  __HAL_UART_DISABLE(huart);
 80020b4:	6813      	ldr	r3, [r2, #0]
 80020b6:	f023 0301 	bic.w	r3, r3, #1
 80020ba:	6013      	str	r3, [r2, #0]
  if (UART_SetConfig(huart) == HAL_ERROR)
 80020bc:	4620      	mov	r0, r4
 80020be:	f7ff fdd1 	bl	8001c64 <UART_SetConfig>
 80020c2:	2801      	cmp	r0, #1
 80020c4:	d016      	beq.n	80020f4 <HAL_UART_Init+0x60>
  if (huart->AdvancedInit.AdvFeatureInit != UART_ADVFEATURE_NO_INIT)
 80020c6:	6a63      	ldr	r3, [r4, #36]	; 0x24
 80020c8:	b113      	cbz	r3, 80020d0 <HAL_UART_Init+0x3c>
    UART_AdvFeatureConfig(huart);
 80020ca:	4620      	mov	r0, r4
 80020cc:	f7ff fed2 	bl	8001e74 <UART_AdvFeatureConfig>
  CLEAR_BIT(huart->Instance->CR2, (USART_CR2_LINEN | USART_CR2_CLKEN));
 80020d0:	6823      	ldr	r3, [r4, #0]
 80020d2:	685a      	ldr	r2, [r3, #4]
 80020d4:	f422 4290 	bic.w	r2, r2, #18432	; 0x4800
 80020d8:	605a      	str	r2, [r3, #4]
  CLEAR_BIT(huart->Instance->CR3, (USART_CR3_SCEN | USART_CR3_HDSEL | USART_CR3_IREN));
 80020da:	689a      	ldr	r2, [r3, #8]
 80020dc:	f022 022a 	bic.w	r2, r2, #42	; 0x2a
 80020e0:	609a      	str	r2, [r3, #8]
  __HAL_UART_ENABLE(huart);
 80020e2:	681a      	ldr	r2, [r3, #0]
 80020e4:	f042 0201 	orr.w	r2, r2, #1
  return (UART_CheckIdleState(huart));
 80020e8:	4620      	mov	r0, r4
  __HAL_UART_ENABLE(huart);
 80020ea:	601a      	str	r2, [r3, #0]
}
 80020ec:	e8bd 4010 	ldmia.w	sp!, {r4, lr}
  return (UART_CheckIdleState(huart));
 80020f0:	f7ff bf9e 	b.w	8002030 <UART_CheckIdleState>
}
 80020f4:	2001      	movs	r0, #1
 80020f6:	bd10      	pop	{r4, pc}

080020f8 <HAL_TIM_IC_CaptureCallback>:

/* USER CODE END PFP */

/* USER CODE BEGIN 0 */
uint32_t t1=0,t2=0,tmp=0;
void HAL_TIM_IC_CaptureCallback(TIM_HandleTypeDef* htim){
 80020f8:	b5d0      	push	{r4, r6, r7, lr}
 80020fa:	4604      	mov	r4, r0
	HAL_UART_Transmit(&huart2,"hi\r\n",4,0xffff);
 80020fc:	f64f 73ff 	movw	r3, #65535	; 0xffff
void HAL_TIM_IC_CaptureCallback(TIM_HandleTypeDef* htim){
 8002100:	b086      	sub	sp, #24
	HAL_UART_Transmit(&huart2,"hi\r\n",4,0xffff);
 8002102:	2204      	movs	r2, #4
 8002104:	4931      	ldr	r1, [pc, #196]	; (80021cc <HAL_TIM_IC_CaptureCallback+0xd4>)
 8002106:	4832      	ldr	r0, [pc, #200]	; (80021d0 <HAL_TIM_IC_CaptureCallback+0xd8>)
 8002108:	f7ff ff39 	bl	8001f7e <HAL_UART_Transmit>
	if(htim->Instance==TIM2){
 800210c:	6823      	ldr	r3, [r4, #0]
 800210e:	f1b3 4f80 	cmp.w	r3, #1073741824	; 0x40000000
 8002112:	d113      	bne.n	800213c <HAL_TIM_IC_CaptureCallback+0x44>
		tmp=HAL_TIM_ReadCapturedValue(&htim2,TIM_CHANNEL_1);
 8002114:	2100      	movs	r1, #0
 8002116:	482f      	ldr	r0, [pc, #188]	; (80021d4 <HAL_TIM_IC_CaptureCallback+0xdc>)
 8002118:	4c2f      	ldr	r4, [pc, #188]	; (80021d8 <HAL_TIM_IC_CaptureCallback+0xe0>)
 800211a:	f7ff fb23 	bl	8001764 <HAL_TIM_ReadCapturedValue>
 800211e:	4b2f      	ldr	r3, [pc, #188]	; (80021dc <HAL_TIM_IC_CaptureCallback+0xe4>)
		if(HAL_GPIO_ReadPin(GPIOA,GPIO_PIN_0)==1){
 8002120:	2101      	movs	r1, #1
		tmp=HAL_TIM_ReadCapturedValue(&htim2,TIM_CHANNEL_1);
 8002122:	6018      	str	r0, [r3, #0]
		if(HAL_GPIO_ReadPin(GPIOA,GPIO_PIN_0)==1){
 8002124:	f04f 4090 	mov.w	r0, #1207959552	; 0x48000000
 8002128:	f7fe fe2a 	bl	8000d80 <HAL_GPIO_ReadPin>
 800212c:	2801      	cmp	r0, #1
			t1=HAL_TIM_ReadCapturedValue(&htim2,TIM_CHANNEL_1);
 800212e:	f04f 0100 	mov.w	r1, #0
 8002132:	4828      	ldr	r0, [pc, #160]	; (80021d4 <HAL_TIM_IC_CaptureCallback+0xdc>)
		if(HAL_GPIO_ReadPin(GPIOA,GPIO_PIN_0)==1){
 8002134:	d104      	bne.n	8002140 <HAL_TIM_IC_CaptureCallback+0x48>
			t1=HAL_TIM_ReadCapturedValue(&htim2,TIM_CHANNEL_1);
 8002136:	f7ff fb15 	bl	8001764 <HAL_TIM_ReadCapturedValue>
 800213a:	6020      	str	r0, [r4, #0]
			HAL_GPIO_WritePin(GPIOA,GPIO_PIN_1,1);
			HAL_Delay(1);
			HAL_GPIO_WritePin(GPIOA,GPIO_PIN_1,0);
		}
	}
}
 800213c:	b006      	add	sp, #24
 800213e:	bdd0      	pop	{r4, r6, r7, pc}
			t2=HAL_TIM_ReadCapturedValue(&htim2,TIM_CHANNEL_1);
 8002140:	f7ff fb10 	bl	8001764 <HAL_TIM_ReadCapturedValue>
 8002144:	4b26      	ldr	r3, [pc, #152]	; (80021e0 <HAL_TIM_IC_CaptureCallback+0xe8>)
 8002146:	6018      	str	r0, [r3, #0]
			distance=(t2-t1)/(double)58;
 8002148:	6823      	ldr	r3, [r4, #0]
 800214a:	1ac0      	subs	r0, r0, r3
 800214c:	f7fe f9da 	bl	8000504 <__aeabi_ui2d>
 8002150:	4b24      	ldr	r3, [pc, #144]	; (80021e4 <HAL_TIM_IC_CaptureCallback+0xec>)
 8002152:	2200      	movs	r2, #0
 8002154:	f7fe fb76 	bl	8000844 <__aeabi_ddiv>
 8002158:	460f      	mov	r7, r1
 800215a:	4606      	mov	r6, r0
			int integer=(int)distance;
 800215c:	f7fe fc5a 	bl	8000a14 <__aeabi_d2iz>
			char tosend[20]={0};
 8002160:	2214      	movs	r2, #20
			int integer=(int)distance;
 8002162:	4604      	mov	r4, r0
			char tosend[20]={0};
 8002164:	2100      	movs	r1, #0
 8002166:	a801      	add	r0, sp, #4
 8002168:	f000 fa18 	bl	800259c <memset>
			int point=(int)((distance-integer)*100);
 800216c:	4620      	mov	r0, r4
 800216e:	f7fe f9d9 	bl	8000524 <__aeabi_i2d>
 8002172:	4602      	mov	r2, r0
 8002174:	460b      	mov	r3, r1
 8002176:	4630      	mov	r0, r6
 8002178:	4639      	mov	r1, r7
 800217a:	f7fe f885 	bl	8000288 <__aeabi_dsub>
 800217e:	2200      	movs	r2, #0
 8002180:	4b19      	ldr	r3, [pc, #100]	; (80021e8 <HAL_TIM_IC_CaptureCallback+0xf0>)
 8002182:	f7fe fa35 	bl	80005f0 <__aeabi_dmul>
 8002186:	f7fe fc45 	bl	8000a14 <__aeabi_d2iz>
			sprintf(tosend,"%d.%02d\r\n",integer,point);
 800218a:	4622      	mov	r2, r4
 800218c:	4603      	mov	r3, r0
 800218e:	4917      	ldr	r1, [pc, #92]	; (80021ec <HAL_TIM_IC_CaptureCallback+0xf4>)
 8002190:	a801      	add	r0, sp, #4
 8002192:	f000 fa0b 	bl	80025ac <siprintf>
			HAL_UART_Transmit(&huart2,tosend,sizeof(tosend),0xffff);
 8002196:	f64f 73ff 	movw	r3, #65535	; 0xffff
 800219a:	a901      	add	r1, sp, #4
 800219c:	2214      	movs	r2, #20
 800219e:	480c      	ldr	r0, [pc, #48]	; (80021d0 <HAL_TIM_IC_CaptureCallback+0xd8>)
 80021a0:	f7ff feed 	bl	8001f7e <HAL_UART_Transmit>
			HAL_Delay(400);
 80021a4:	f44f 70c8 	mov.w	r0, #400	; 0x190
 80021a8:	f7fe fc90 	bl	8000acc <HAL_Delay>
			HAL_GPIO_WritePin(GPIOA,GPIO_PIN_1,1);
 80021ac:	2201      	movs	r2, #1
 80021ae:	2102      	movs	r1, #2
 80021b0:	f04f 4090 	mov.w	r0, #1207959552	; 0x48000000
 80021b4:	f7fe fdea 	bl	8000d8c <HAL_GPIO_WritePin>
			HAL_Delay(1);
 80021b8:	2001      	movs	r0, #1
 80021ba:	f7fe fc87 	bl	8000acc <HAL_Delay>
			HAL_GPIO_WritePin(GPIOA,GPIO_PIN_1,0);
 80021be:	2200      	movs	r2, #0
 80021c0:	2102      	movs	r1, #2
 80021c2:	f04f 4090 	mov.w	r0, #1207959552	; 0x48000000
 80021c6:	f7fe fde1 	bl	8000d8c <HAL_GPIO_WritePin>
}
 80021ca:	e7b7      	b.n	800213c <HAL_TIM_IC_CaptureCallback+0x44>
 80021cc:	08002e40 	.word	0x08002e40
 80021d0:	200000e0 	.word	0x200000e0
 80021d4:	200000a0 	.word	0x200000a0
 80021d8:	20000084 	.word	0x20000084
 80021dc:	2000008c 	.word	0x2000008c
 80021e0:	20000088 	.word	0x20000088
 80021e4:	404d0000 	.word	0x404d0000
 80021e8:	40590000 	.word	0x40590000
 80021ec:	08002e45 	.word	0x08002e45

080021f0 <SystemClock_Config>:
/**
  * @brief System Clock Configuration
  * @retval None
  */
void SystemClock_Config(void)
{
 80021f0:	b510      	push	{r4, lr}
 80021f2:	b0a6      	sub	sp, #152	; 0x98
  RCC_ClkInitTypeDef RCC_ClkInitStruct;
  RCC_PeriphCLKInitTypeDef PeriphClkInit;

    /**Initializes the CPU, AHB and APB busses clocks 
    */
  RCC_OscInitStruct.OscillatorType = RCC_OSCILLATORTYPE_HSI;
 80021f4:	2302      	movs	r3, #2
 80021f6:	9306      	str	r3, [sp, #24]
  RCC_OscInitStruct.HSIState = RCC_HSI_ON;
 80021f8:	2301      	movs	r3, #1
 80021fa:	9309      	str	r3, [sp, #36]	; 0x24
  RCC_OscInitStruct.HSICalibrationValue = 16;
 80021fc:	2310      	movs	r3, #16
 80021fe:	930a      	str	r3, [sp, #40]	; 0x28
  RCC_OscInitStruct.PLL.PLLState = RCC_PLL_NONE;
  if (HAL_RCC_OscConfig(&RCC_OscInitStruct) != HAL_OK)
 8002200:	a806      	add	r0, sp, #24
  RCC_OscInitStruct.PLL.PLLState = RCC_PLL_NONE;
 8002202:	2300      	movs	r3, #0
 8002204:	930c      	str	r3, [sp, #48]	; 0x30
  if (HAL_RCC_OscConfig(&RCC_OscInitStruct) != HAL_OK)
 8002206:	f7fe fdc7 	bl	8000d98 <HAL_RCC_OscConfig>
 800220a:	4601      	mov	r1, r0
 800220c:	b100      	cbz	r0, 8002210 <SystemClock_Config+0x20>
 800220e:	e7fe      	b.n	800220e <SystemClock_Config+0x1e>
    _Error_Handler(__FILE__, __LINE__);
  }

    /**Initializes the CPU, AHB and APB busses clocks 
    */
  RCC_ClkInitStruct.ClockType = RCC_CLOCKTYPE_HCLK|RCC_CLOCKTYPE_SYSCLK
 8002210:	230f      	movs	r3, #15
                              |RCC_CLOCKTYPE_PCLK1|RCC_CLOCKTYPE_PCLK2;
  RCC_ClkInitStruct.SYSCLKSource = RCC_SYSCLKSOURCE_HSI;
 8002212:	9002      	str	r0, [sp, #8]
  RCC_ClkInitStruct.AHBCLKDivider = RCC_SYSCLK_DIV1;
 8002214:	9003      	str	r0, [sp, #12]
  RCC_ClkInitStruct.APB1CLKDivider = RCC_HCLK_DIV1;
 8002216:	9004      	str	r0, [sp, #16]
  RCC_ClkInitStruct.APB2CLKDivider = RCC_HCLK_DIV1;
 8002218:	9005      	str	r0, [sp, #20]

  if (HAL_RCC_ClockConfig(&RCC_ClkInitStruct, FLASH_LATENCY_0) != HAL_OK)
 800221a:	a801      	add	r0, sp, #4
  RCC_ClkInitStruct.ClockType = RCC_CLOCKTYPE_HCLK|RCC_CLOCKTYPE_SYSCLK
 800221c:	9301      	str	r3, [sp, #4]
  if (HAL_RCC_ClockConfig(&RCC_ClkInitStruct, FLASH_LATENCY_0) != HAL_OK)
 800221e:	f7ff f865 	bl	80012ec <HAL_RCC_ClockConfig>
 8002222:	b100      	cbz	r0, 8002226 <SystemClock_Config+0x36>
 8002224:	e7fe      	b.n	8002224 <SystemClock_Config+0x34>
  {
    _Error_Handler(__FILE__, __LINE__);
  }

  PeriphClkInit.PeriphClockSelection = RCC_PERIPHCLK_USART2|RCC_PERIPHCLK_TIM2;
 8002226:	4b0e      	ldr	r3, [pc, #56]	; (8002260 <SystemClock_Config+0x70>)
  PeriphClkInit.Usart2ClockSelection = RCC_USART2CLKSOURCE_PCLK1;
 8002228:	9013      	str	r0, [sp, #76]	; 0x4c
  PeriphClkInit.Tim2ClockSelection = RCC_TIM2CLK_HCLK;
 800222a:	901e      	str	r0, [sp, #120]	; 0x78
  if (HAL_RCCEx_PeriphCLKConfig(&PeriphClkInit) != HAL_OK)
 800222c:	a810      	add	r0, sp, #64	; 0x40
  PeriphClkInit.PeriphClockSelection = RCC_PERIPHCLK_USART2|RCC_PERIPHCLK_TIM2;
 800222e:	9310      	str	r3, [sp, #64]	; 0x40
  if (HAL_RCCEx_PeriphCLKConfig(&PeriphClkInit) != HAL_OK)
 8002230:	f7ff f954 	bl	80014dc <HAL_RCCEx_PeriphCLKConfig>
 8002234:	4604      	mov	r4, r0
 8002236:	b100      	cbz	r0, 800223a <SystemClock_Config+0x4a>
 8002238:	e7fe      	b.n	8002238 <SystemClock_Config+0x48>
    _Error_Handler(__FILE__, __LINE__);
  }

    /**Configure the Systick interrupt time 
    */
  HAL_SYSTICK_Config(HAL_RCC_GetHCLKFreq()/1000);
 800223a:	f7ff f919 	bl	8001470 <HAL_RCC_GetHCLKFreq>
 800223e:	f44f 737a 	mov.w	r3, #1000	; 0x3e8
 8002242:	fbb0 f0f3 	udiv	r0, r0, r3
 8002246:	f7fe fca3 	bl	8000b90 <HAL_SYSTICK_Config>

    /**Configure the Systick 
    */
  HAL_SYSTICK_CLKSourceConfig(SYSTICK_CLKSOURCE_HCLK);
 800224a:	2004      	movs	r0, #4
 800224c:	f7fe fcb6 	bl	8000bbc <HAL_SYSTICK_CLKSourceConfig>

  /* SysTick_IRQn interrupt configuration */
  HAL_NVIC_SetPriority(SysTick_IRQn, 0, 0);
 8002250:	4622      	mov	r2, r4
 8002252:	4621      	mov	r1, r4
 8002254:	f04f 30ff 	mov.w	r0, #4294967295
 8002258:	f7fe fc5a 	bl	8000b10 <HAL_NVIC_SetPriority>
}
 800225c:	b026      	add	sp, #152	; 0x98
 800225e:	bd10      	pop	{r4, pc}
 8002260:	00100002 	.word	0x00100002

08002264 <main>:
{
 8002264:	b580      	push	{r7, lr}
 8002266:	b08a      	sub	sp, #40	; 0x28
  HAL_Init();
 8002268:	f7fe fc10 	bl	8000a8c <HAL_Init>
  SystemClock_Config();
 800226c:	f7ff ffc0 	bl	80021f0 <SystemClock_Config>
{

  GPIO_InitTypeDef GPIO_InitStruct;

  /* GPIO Ports Clock Enable */
  __HAL_RCC_GPIOA_CLK_ENABLE();
 8002270:	4b35      	ldr	r3, [pc, #212]	; (8002348 <main+0xe4>)
  htim2.Instance = TIM2;
 8002272:	4c36      	ldr	r4, [pc, #216]	; (800234c <main+0xe8>)
  __HAL_RCC_GPIOA_CLK_ENABLE();
 8002274:	695a      	ldr	r2, [r3, #20]
 8002276:	f442 3200 	orr.w	r2, r2, #131072	; 0x20000
 800227a:	615a      	str	r2, [r3, #20]
 800227c:	695b      	ldr	r3, [r3, #20]
 800227e:	f403 3300 	and.w	r3, r3, #131072	; 0x20000
 8002282:	9301      	str	r3, [sp, #4]

  /*Configure GPIO pin Output Level */
  HAL_GPIO_WritePin(GPIOA, GPIO_PIN_1, GPIO_PIN_RESET);
 8002284:	2200      	movs	r2, #0
 8002286:	2102      	movs	r1, #2
 8002288:	f04f 4090 	mov.w	r0, #1207959552	; 0x48000000

  /*Configure GPIO pin : PA1 */
  GPIO_InitStruct.Pin = GPIO_PIN_1;
  GPIO_InitStruct.Mode = GPIO_MODE_OUTPUT_PP;
  GPIO_InitStruct.Pull = GPIO_NOPULL;
 800228c:	2500      	movs	r5, #0
  __HAL_RCC_GPIOA_CLK_ENABLE();
 800228e:	9b01      	ldr	r3, [sp, #4]
  GPIO_InitStruct.Pin = GPIO_PIN_1;
 8002290:	2702      	movs	r7, #2
  HAL_GPIO_WritePin(GPIOA, GPIO_PIN_1, GPIO_PIN_RESET);
 8002292:	f7fe fd7b 	bl	8000d8c <HAL_GPIO_WritePin>
  GPIO_InitStruct.Mode = GPIO_MODE_OUTPUT_PP;
 8002296:	2601      	movs	r6, #1
  GPIO_InitStruct.Speed = GPIO_SPEED_FREQ_LOW;
  HAL_GPIO_Init(GPIOA, &GPIO_InitStruct);
 8002298:	f04f 4090 	mov.w	r0, #1207959552	; 0x48000000
 800229c:	a905      	add	r1, sp, #20
  GPIO_InitStruct.Pin = GPIO_PIN_1;
 800229e:	9705      	str	r7, [sp, #20]
  GPIO_InitStruct.Mode = GPIO_MODE_OUTPUT_PP;
 80022a0:	9606      	str	r6, [sp, #24]
  GPIO_InitStruct.Pull = GPIO_NOPULL;
 80022a2:	9507      	str	r5, [sp, #28]
  GPIO_InitStruct.Speed = GPIO_SPEED_FREQ_LOW;
 80022a4:	9508      	str	r5, [sp, #32]
  HAL_GPIO_Init(GPIOA, &GPIO_InitStruct);
 80022a6:	f7fe fc9b 	bl	8000be0 <HAL_GPIO_Init>
  htim2.Init.Prescaler = 7;
 80022aa:	f04f 4080 	mov.w	r0, #1073741824	; 0x40000000
 80022ae:	2307      	movs	r3, #7
 80022b0:	e884 0009 	stmia.w	r4, {r0, r3}
  htim2.Init.Period = 0xffff;
 80022b4:	f64f 73ff 	movw	r3, #65535	; 0xffff
  if (HAL_TIM_IC_Init(&htim2) != HAL_OK)
 80022b8:	4620      	mov	r0, r4
  htim2.Init.CounterMode = TIM_COUNTERMODE_UP;
 80022ba:	60a5      	str	r5, [r4, #8]
  htim2.Init.Period = 0xffff;
 80022bc:	60e3      	str	r3, [r4, #12]
  htim2.Init.ClockDivision = TIM_CLOCKDIVISION_DIV1;
 80022be:	6125      	str	r5, [r4, #16]
  htim2.Init.AutoReloadPreload = TIM_AUTORELOAD_PRELOAD_DISABLE;
 80022c0:	61a5      	str	r5, [r4, #24]
  if (HAL_TIM_IC_Init(&htim2) != HAL_OK)
 80022c2:	f7ff fb91 	bl	80019e8 <HAL_TIM_IC_Init>
 80022c6:	b100      	cbz	r0, 80022ca <main+0x66>
 80022c8:	e7fe      	b.n	80022c8 <main+0x64>
  sMasterConfig.MasterOutputTrigger = TIM_TRGO_RESET;
 80022ca:	9002      	str	r0, [sp, #8]
  sMasterConfig.MasterSlaveMode = TIM_MASTERSLAVEMODE_ENABLE;
 80022cc:	2380      	movs	r3, #128	; 0x80
  if (HAL_TIMEx_MasterConfigSynchronization(&htim2, &sMasterConfig) != HAL_OK)
 80022ce:	a902      	add	r1, sp, #8
 80022d0:	4620      	mov	r0, r4
  sMasterConfig.MasterSlaveMode = TIM_MASTERSLAVEMODE_ENABLE;
 80022d2:	9304      	str	r3, [sp, #16]
  if (HAL_TIMEx_MasterConfigSynchronization(&htim2, &sMasterConfig) != HAL_OK)
 80022d4:	f7ff fc98 	bl	8001c08 <HAL_TIMEx_MasterConfigSynchronization>
 80022d8:	4602      	mov	r2, r0
 80022da:	b100      	cbz	r0, 80022de <main+0x7a>
 80022dc:	e7fe      	b.n	80022dc <main+0x78>
  sConfigIC.ICPolarity = TIM_INPUTCHANNELPOLARITY_BOTHEDGE;
 80022de:	230a      	movs	r3, #10
  sConfigIC.ICPrescaler = TIM_ICPSC_DIV1;
 80022e0:	9007      	str	r0, [sp, #28]
  sConfigIC.ICFilter = 0;
 80022e2:	9008      	str	r0, [sp, #32]
  if (HAL_TIM_IC_ConfigChannel(&htim2, &sConfigIC, TIM_CHANNEL_1) != HAL_OK)
 80022e4:	a905      	add	r1, sp, #20
 80022e6:	4620      	mov	r0, r4
  sConfigIC.ICPolarity = TIM_INPUTCHANNELPOLARITY_BOTHEDGE;
 80022e8:	9305      	str	r3, [sp, #20]
  sConfigIC.ICSelection = TIM_ICSELECTION_DIRECTTI;
 80022ea:	9606      	str	r6, [sp, #24]
  if (HAL_TIM_IC_ConfigChannel(&htim2, &sConfigIC, TIM_CHANNEL_1) != HAL_OK)
 80022ec:	f7ff fbcc 	bl	8001a88 <HAL_TIM_IC_ConfigChannel>
 80022f0:	b100      	cbz	r0, 80022f4 <main+0x90>
 80022f2:	e7fe      	b.n	80022f2 <main+0x8e>
  huart2.Instance = USART2;
 80022f4:	4b16      	ldr	r3, [pc, #88]	; (8002350 <main+0xec>)
  huart2.Init.BaudRate = 115200;
 80022f6:	4917      	ldr	r1, [pc, #92]	; (8002354 <main+0xf0>)
  huart2.Init.WordLength = UART_WORDLENGTH_8B;
 80022f8:	6098      	str	r0, [r3, #8]
  huart2.Init.BaudRate = 115200;
 80022fa:	f44f 32e1 	mov.w	r2, #115200	; 0x1c200
 80022fe:	e883 0006 	stmia.w	r3, {r1, r2}
  huart2.Init.StopBits = UART_STOPBITS_1;
 8002302:	60d8      	str	r0, [r3, #12]
  huart2.Init.Parity = UART_PARITY_NONE;
 8002304:	6118      	str	r0, [r3, #16]
  huart2.Init.Mode = UART_MODE_TX_RX;
 8002306:	220c      	movs	r2, #12
  huart2.Init.HwFlowCtl = UART_HWCONTROL_NONE;
 8002308:	6198      	str	r0, [r3, #24]
  huart2.Init.OverSampling = UART_OVERSAMPLING_16;
 800230a:	61d8      	str	r0, [r3, #28]
  huart2.Init.OneBitSampling = UART_ONE_BIT_SAMPLE_DISABLE;
 800230c:	6218      	str	r0, [r3, #32]
  huart2.AdvancedInit.AdvFeatureInit = UART_ADVFEATURE_NO_INIT;
 800230e:	6258      	str	r0, [r3, #36]	; 0x24
  if (HAL_UART_Init(&huart2) != HAL_OK)
 8002310:	4618      	mov	r0, r3
  huart2.Init.Mode = UART_MODE_TX_RX;
 8002312:	615a      	str	r2, [r3, #20]
  if (HAL_UART_Init(&huart2) != HAL_OK)
 8002314:	f7ff febe 	bl	8002094 <HAL_UART_Init>
 8002318:	4605      	mov	r5, r0
 800231a:	b100      	cbz	r0, 800231e <main+0xba>
 800231c:	e7fe      	b.n	800231c <main+0xb8>
  HAL_TIM_IC_Start_IT(&htim2,TIM_CHANNEL_1);
 800231e:	4601      	mov	r1, r0
 8002320:	4620      	mov	r0, r4
 8002322:	f7ff fc45 	bl	8001bb0 <HAL_TIM_IC_Start_IT>
  HAL_GPIO_WritePin(GPIOA,GPIO_PIN_1,1);
 8002326:	4632      	mov	r2, r6
 8002328:	4639      	mov	r1, r7
 800232a:	f04f 4090 	mov.w	r0, #1207959552	; 0x48000000
 800232e:	f7fe fd2d 	bl	8000d8c <HAL_GPIO_WritePin>
  HAL_Delay(1);
 8002332:	4630      	mov	r0, r6
 8002334:	f7fe fbca 	bl	8000acc <HAL_Delay>
  HAL_GPIO_WritePin(GPIOA,GPIO_PIN_1,0);
 8002338:	462a      	mov	r2, r5
 800233a:	4639      	mov	r1, r7
 800233c:	f04f 4090 	mov.w	r0, #1207959552	; 0x48000000
 8002340:	f7fe fd24 	bl	8000d8c <HAL_GPIO_WritePin>
 8002344:	e7fe      	b.n	8002344 <main+0xe0>
 8002346:	bf00      	nop
 8002348:	40021000 	.word	0x40021000
 800234c:	200000a0 	.word	0x200000a0
 8002350:	200000e0 	.word	0x200000e0
 8002354:	40004400 	.word	0x40004400

08002358 <HAL_MspInit>:
{
  /* USER CODE BEGIN MspInit 0 */

  /* USER CODE END MspInit 0 */

  __HAL_RCC_SYSCFG_CLK_ENABLE();
 8002358:	4b1d      	ldr	r3, [pc, #116]	; (80023d0 <HAL_MspInit+0x78>)
{
 800235a:	b507      	push	{r0, r1, r2, lr}
  __HAL_RCC_SYSCFG_CLK_ENABLE();
 800235c:	699a      	ldr	r2, [r3, #24]
 800235e:	f042 0201 	orr.w	r2, r2, #1
 8002362:	619a      	str	r2, [r3, #24]
 8002364:	699b      	ldr	r3, [r3, #24]
 8002366:	f003 0301 	and.w	r3, r3, #1
 800236a:	9301      	str	r3, [sp, #4]

  HAL_NVIC_SetPriorityGrouping(NVIC_PRIORITYGROUP_4);
 800236c:	2003      	movs	r0, #3
  __HAL_RCC_SYSCFG_CLK_ENABLE();
 800236e:	9b01      	ldr	r3, [sp, #4]
  HAL_NVIC_SetPriorityGrouping(NVIC_PRIORITYGROUP_4);
 8002370:	f7fe fbbc 	bl	8000aec <HAL_NVIC_SetPriorityGrouping>

  /* System interrupt init*/
  /* MemoryManagement_IRQn interrupt configuration */
  HAL_NVIC_SetPriority(MemoryManagement_IRQn, 0, 0);
 8002374:	2200      	movs	r2, #0
 8002376:	4611      	mov	r1, r2
 8002378:	f06f 000b 	mvn.w	r0, #11
 800237c:	f7fe fbc8 	bl	8000b10 <HAL_NVIC_SetPriority>
  /* BusFault_IRQn interrupt configuration */
  HAL_NVIC_SetPriority(BusFault_IRQn, 0, 0);
 8002380:	2200      	movs	r2, #0
 8002382:	4611      	mov	r1, r2
 8002384:	f06f 000a 	mvn.w	r0, #10
 8002388:	f7fe fbc2 	bl	8000b10 <HAL_NVIC_SetPriority>
  /* UsageFault_IRQn interrupt configuration */
  HAL_NVIC_SetPriority(UsageFault_IRQn, 0, 0);
 800238c:	2200      	movs	r2, #0
 800238e:	4611      	mov	r1, r2
 8002390:	f06f 0009 	mvn.w	r0, #9
 8002394:	f7fe fbbc 	bl	8000b10 <HAL_NVIC_SetPriority>
  /* SVCall_IRQn interrupt configuration */
  HAL_NVIC_SetPriority(SVCall_IRQn, 0, 0);
 8002398:	2200      	movs	r2, #0
 800239a:	4611      	mov	r1, r2
 800239c:	f06f 0004 	mvn.w	r0, #4
 80023a0:	f7fe fbb6 	bl	8000b10 <HAL_NVIC_SetPriority>
  /* DebugMonitor_IRQn interrupt configuration */
  HAL_NVIC_SetPriority(DebugMonitor_IRQn, 0, 0);
 80023a4:	2200      	movs	r2, #0
 80023a6:	4611      	mov	r1, r2
 80023a8:	f06f 0003 	mvn.w	r0, #3
 80023ac:	f7fe fbb0 	bl	8000b10 <HAL_NVIC_SetPriority>
  /* PendSV_IRQn interrupt configuration */
  HAL_NVIC_SetPriority(PendSV_IRQn, 0, 0);
 80023b0:	2200      	movs	r2, #0
 80023b2:	4611      	mov	r1, r2
 80023b4:	f06f 0001 	mvn.w	r0, #1
 80023b8:	f7fe fbaa 	bl	8000b10 <HAL_NVIC_SetPriority>
  /* SysTick_IRQn interrupt configuration */
  HAL_NVIC_SetPriority(SysTick_IRQn, 0, 0);
 80023bc:	2200      	movs	r2, #0
 80023be:	4611      	mov	r1, r2
 80023c0:	f04f 30ff 	mov.w	r0, #4294967295
 80023c4:	f7fe fba4 	bl	8000b10 <HAL_NVIC_SetPriority>

  /* USER CODE BEGIN MspInit 1 */

  /* USER CODE END MspInit 1 */
}
 80023c8:	b003      	add	sp, #12
 80023ca:	f85d fb04 	ldr.w	pc, [sp], #4
 80023ce:	bf00      	nop
 80023d0:	40021000 	.word	0x40021000

080023d4 <HAL_TIM_IC_MspInit>:

void HAL_TIM_IC_MspInit(TIM_HandleTypeDef* htim_ic)
{
 80023d4:	b530      	push	{r4, r5, lr}

  GPIO_InitTypeDef GPIO_InitStruct;
  if(htim_ic->Instance==TIM2)
 80023d6:	6803      	ldr	r3, [r0, #0]
 80023d8:	f1b3 4f80 	cmp.w	r3, #1073741824	; 0x40000000
{
 80023dc:	b087      	sub	sp, #28
  if(htim_ic->Instance==TIM2)
 80023de:	d11f      	bne.n	8002420 <HAL_TIM_IC_MspInit+0x4c>
  {
  /* USER CODE BEGIN TIM2_MspInit 0 */

  /* USER CODE END TIM2_MspInit 0 */
    /* Peripheral clock enable */
    __HAL_RCC_TIM2_CLK_ENABLE();
 80023e0:	f503 3304 	add.w	r3, r3, #135168	; 0x21000
  
    /**TIM2 GPIO Configuration    
    PA0     ------> TIM2_CH1 
    */
    GPIO_InitStruct.Pin = GPIO_PIN_0;
 80023e4:	2401      	movs	r4, #1
    __HAL_RCC_TIM2_CLK_ENABLE();
 80023e6:	69da      	ldr	r2, [r3, #28]
 80023e8:	f042 0201 	orr.w	r2, r2, #1
 80023ec:	61da      	str	r2, [r3, #28]
 80023ee:	69db      	ldr	r3, [r3, #28]
    GPIO_InitStruct.Pin = GPIO_PIN_0;
 80023f0:	9401      	str	r4, [sp, #4]
    __HAL_RCC_TIM2_CLK_ENABLE();
 80023f2:	f003 0301 	and.w	r3, r3, #1
 80023f6:	9300      	str	r3, [sp, #0]
    GPIO_InitStruct.Mode = GPIO_MODE_AF_PP;
    GPIO_InitStruct.Pull = GPIO_NOPULL;
 80023f8:	2500      	movs	r5, #0
    __HAL_RCC_TIM2_CLK_ENABLE();
 80023fa:	9b00      	ldr	r3, [sp, #0]
    GPIO_InitStruct.Pull = GPIO_NOPULL;
 80023fc:	9503      	str	r5, [sp, #12]
    GPIO_InitStruct.Mode = GPIO_MODE_AF_PP;
 80023fe:	2302      	movs	r3, #2
    GPIO_InitStruct.Speed = GPIO_SPEED_FREQ_LOW;
    GPIO_InitStruct.Alternate = GPIO_AF1_TIM2;
    HAL_GPIO_Init(GPIOA, &GPIO_InitStruct);
 8002400:	a901      	add	r1, sp, #4
 8002402:	f04f 4090 	mov.w	r0, #1207959552	; 0x48000000
    GPIO_InitStruct.Mode = GPIO_MODE_AF_PP;
 8002406:	9302      	str	r3, [sp, #8]
    GPIO_InitStruct.Speed = GPIO_SPEED_FREQ_LOW;
 8002408:	9504      	str	r5, [sp, #16]
    GPIO_InitStruct.Alternate = GPIO_AF1_TIM2;
 800240a:	9405      	str	r4, [sp, #20]
    HAL_GPIO_Init(GPIOA, &GPIO_InitStruct);
 800240c:	f7fe fbe8 	bl	8000be0 <HAL_GPIO_Init>

    /* TIM2 interrupt Init */
    HAL_NVIC_SetPriority(TIM2_IRQn, 1, 0);
 8002410:	201c      	movs	r0, #28
 8002412:	462a      	mov	r2, r5
 8002414:	4621      	mov	r1, r4
 8002416:	f7fe fb7b 	bl	8000b10 <HAL_NVIC_SetPriority>
    HAL_NVIC_EnableIRQ(TIM2_IRQn);
 800241a:	201c      	movs	r0, #28
 800241c:	f7fe fbac 	bl	8000b78 <HAL_NVIC_EnableIRQ>
  /* USER CODE BEGIN TIM2_MspInit 1 */

  /* USER CODE END TIM2_MspInit 1 */
  }

}
 8002420:	b007      	add	sp, #28
 8002422:	bd30      	pop	{r4, r5, pc}

08002424 <HAL_UART_MspInit>:
  }

}

void HAL_UART_MspInit(UART_HandleTypeDef* huart)
{
 8002424:	b57f      	push	{r0, r1, r2, r3, r4, r5, r6, lr}

  GPIO_InitTypeDef GPIO_InitStruct;
  if(huart->Instance==USART2)
 8002426:	6802      	ldr	r2, [r0, #0]
 8002428:	4b0f      	ldr	r3, [pc, #60]	; (8002468 <HAL_UART_MspInit+0x44>)
 800242a:	429a      	cmp	r2, r3
 800242c:	d119      	bne.n	8002462 <HAL_UART_MspInit+0x3e>
  {
  /* USER CODE BEGIN USART2_MspInit 0 */

  /* USER CODE END USART2_MspInit 0 */
    /* Peripheral clock enable */
    __HAL_RCC_USART2_CLK_ENABLE();
 800242e:	f503 33e6 	add.w	r3, r3, #117760	; 0x1cc00
    GPIO_InitStruct.Pin = GPIO_PIN_2|GPIO_PIN_3;
    GPIO_InitStruct.Mode = GPIO_MODE_AF_PP;
    GPIO_InitStruct.Pull = GPIO_NOPULL;
    GPIO_InitStruct.Speed = GPIO_SPEED_FREQ_HIGH;
    GPIO_InitStruct.Alternate = GPIO_AF7_USART2;
    HAL_GPIO_Init(GPIOA, &GPIO_InitStruct);
 8002432:	a901      	add	r1, sp, #4
    __HAL_RCC_USART2_CLK_ENABLE();
 8002434:	69da      	ldr	r2, [r3, #28]
 8002436:	f442 3200 	orr.w	r2, r2, #131072	; 0x20000
 800243a:	61da      	str	r2, [r3, #28]
 800243c:	69db      	ldr	r3, [r3, #28]
 800243e:	f403 3300 	and.w	r3, r3, #131072	; 0x20000
 8002442:	9300      	str	r3, [sp, #0]
 8002444:	9b00      	ldr	r3, [sp, #0]
    GPIO_InitStruct.Pin = GPIO_PIN_2|GPIO_PIN_3;
 8002446:	230c      	movs	r3, #12
 8002448:	9301      	str	r3, [sp, #4]
    GPIO_InitStruct.Mode = GPIO_MODE_AF_PP;
 800244a:	2302      	movs	r3, #2
 800244c:	9302      	str	r3, [sp, #8]
    GPIO_InitStruct.Pull = GPIO_NOPULL;
 800244e:	2300      	movs	r3, #0
 8002450:	9303      	str	r3, [sp, #12]
    GPIO_InitStruct.Speed = GPIO_SPEED_FREQ_HIGH;
 8002452:	2303      	movs	r3, #3
 8002454:	9304      	str	r3, [sp, #16]
    HAL_GPIO_Init(GPIOA, &GPIO_InitStruct);
 8002456:	f04f 4090 	mov.w	r0, #1207959552	; 0x48000000
    GPIO_InitStruct.Alternate = GPIO_AF7_USART2;
 800245a:	2307      	movs	r3, #7
 800245c:	9305      	str	r3, [sp, #20]
    HAL_GPIO_Init(GPIOA, &GPIO_InitStruct);
 800245e:	f7fe fbbf 	bl	8000be0 <HAL_GPIO_Init>
  /* USER CODE BEGIN USART2_MspInit 1 */

  /* USER CODE END USART2_MspInit 1 */
  }

}
 8002462:	b007      	add	sp, #28
 8002464:	f85d fb04 	ldr.w	pc, [sp], #4
 8002468:	40004400 	.word	0x40004400

0800246c <NMI_Handler>:
 800246c:	4770      	bx	lr

0800246e <HardFault_Handler>:

/**
* @brief This function handles Hard fault interrupt.
*/
void HardFault_Handler(void)
{
 800246e:	e7fe      	b.n	800246e <HardFault_Handler>

08002470 <MemManage_Handler>:

/**
* @brief This function handles Memory management fault.
*/
void MemManage_Handler(void)
{
 8002470:	e7fe      	b.n	8002470 <MemManage_Handler>

08002472 <BusFault_Handler>:

/**
* @brief This function handles Pre-fetch fault, memory access fault.
*/
void BusFault_Handler(void)
{
 8002472:	e7fe      	b.n	8002472 <BusFault_Handler>

08002474 <UsageFault_Handler>:

/**
* @brief This function handles Undefined instruction or illegal state.
*/
void UsageFault_Handler(void)
{
 8002474:	e7fe      	b.n	8002474 <UsageFault_Handler>

08002476 <SVC_Handler>:
 8002476:	4770      	bx	lr

08002478 <DebugMon_Handler>:
 8002478:	4770      	bx	lr

0800247a <PendSV_Handler>:

/**
* @brief This function handles Pendable request for system service.
*/
void PendSV_Handler(void)
{
 800247a:	4770      	bx	lr

0800247c <SysTick_Handler>:

/**
* @brief This function handles System tick timer.
*/
void SysTick_Handler(void)
{
 800247c:	b508      	push	{r3, lr}
  /* USER CODE BEGIN SysTick_IRQn 0 */

  /* USER CODE END SysTick_IRQn 0 */
  HAL_IncTick();
 800247e:	f7fe fb17 	bl	8000ab0 <HAL_IncTick>
  HAL_SYSTICK_IRQHandler();
  /* USER CODE BEGIN SysTick_IRQn 1 */

  /* USER CODE END SysTick_IRQn 1 */
}
 8002482:	e8bd 4008 	ldmia.w	sp!, {r3, lr}
  HAL_SYSTICK_IRQHandler();
 8002486:	f7fe bba6 	b.w	8000bd6 <HAL_SYSTICK_IRQHandler>
	...

0800248c <TIM2_IRQHandler>:
void TIM2_IRQHandler(void)
{
  /* USER CODE BEGIN TIM2_IRQn 0 */

  /* USER CODE END TIM2_IRQn 0 */
  HAL_TIM_IRQHandler(&htim2);
 800248c:	4801      	ldr	r0, [pc, #4]	; (8002494 <TIM2_IRQHandler+0x8>)
 800248e:	f7ff b990 	b.w	80017b2 <HAL_TIM_IRQHandler>
 8002492:	bf00      	nop
 8002494:	200000a0 	.word	0x200000a0

08002498 <SystemInit>:
  */
void SystemInit(void)
{
  /* FPU settings ------------------------------------------------------------*/
  #if (__FPU_PRESENT == 1) && (__FPU_USED == 1)
    SCB->CPACR |= ((3UL << 10*2)|(3UL << 11*2));  /* set CP10 and CP11 Full Access */
 8002498:	4915      	ldr	r1, [pc, #84]	; (80024f0 <SystemInit+0x58>)
 800249a:	f8d1 3088 	ldr.w	r3, [r1, #136]	; 0x88
 800249e:	f443 0370 	orr.w	r3, r3, #15728640	; 0xf00000
 80024a2:	f8c1 3088 	str.w	r3, [r1, #136]	; 0x88
  #endif

  /* Reset the RCC clock configuration to the default reset state ------------*/
  /* Set HSION bit */
  RCC->CR |= 0x00000001U;
 80024a6:	4b13      	ldr	r3, [pc, #76]	; (80024f4 <SystemInit+0x5c>)
 80024a8:	681a      	ldr	r2, [r3, #0]
 80024aa:	f042 0201 	orr.w	r2, r2, #1
 80024ae:	601a      	str	r2, [r3, #0]

  /* Reset CFGR register */
  RCC->CFGR &= 0xF87FC00CU;
 80024b0:	6858      	ldr	r0, [r3, #4]
 80024b2:	4a11      	ldr	r2, [pc, #68]	; (80024f8 <SystemInit+0x60>)
 80024b4:	4002      	ands	r2, r0
 80024b6:	605a      	str	r2, [r3, #4]

  /* Reset HSEON, CSSON and PLLON bits */
  RCC->CR &= 0xFEF6FFFFU;
 80024b8:	681a      	ldr	r2, [r3, #0]
 80024ba:	f022 7284 	bic.w	r2, r2, #17301504	; 0x1080000
 80024be:	f422 3280 	bic.w	r2, r2, #65536	; 0x10000
 80024c2:	601a      	str	r2, [r3, #0]

  /* Reset HSEBYP bit */
  RCC->CR &= 0xFFFBFFFFU;
 80024c4:	681a      	ldr	r2, [r3, #0]
 80024c6:	f422 2280 	bic.w	r2, r2, #262144	; 0x40000
 80024ca:	601a      	str	r2, [r3, #0]

  /* Reset PLLSRC, PLLXTPRE, PLLMUL and USBPRE bits */
  RCC->CFGR &= 0xFF80FFFFU;
 80024cc:	685a      	ldr	r2, [r3, #4]
 80024ce:	f422 02fe 	bic.w	r2, r2, #8323072	; 0x7f0000
 80024d2:	605a      	str	r2, [r3, #4]

  /* Reset PREDIV1[3:0] bits */
  RCC->CFGR2 &= 0xFFFFFFF0U;
 80024d4:	6ada      	ldr	r2, [r3, #44]	; 0x2c
 80024d6:	f022 020f 	bic.w	r2, r2, #15
 80024da:	62da      	str	r2, [r3, #44]	; 0x2c

  /* Reset USARTSW[1:0], I2CSW and TIMs bits */
  RCC->CFGR3 &= 0xFF00FCCCU;
 80024dc:	6b18      	ldr	r0, [r3, #48]	; 0x30
 80024de:	4a07      	ldr	r2, [pc, #28]	; (80024fc <SystemInit+0x64>)
 80024e0:	4002      	ands	r2, r0
 80024e2:	631a      	str	r2, [r3, #48]	; 0x30

  /* Disable all interrupts */
  RCC->CIR = 0x00000000U;
 80024e4:	2200      	movs	r2, #0
 80024e6:	609a      	str	r2, [r3, #8]

#ifdef VECT_TAB_SRAM
  SCB->VTOR = SRAM_BASE | VECT_TAB_OFFSET; /* Vector Table Relocation in Internal SRAM */
#else
  SCB->VTOR = FLASH_BASE | VECT_TAB_OFFSET; /* Vector Table Relocation in Internal FLASH */
 80024e8:	f04f 6300 	mov.w	r3, #134217728	; 0x8000000
 80024ec:	608b      	str	r3, [r1, #8]
 80024ee:	4770      	bx	lr
 80024f0:	e000ed00 	.word	0xe000ed00
 80024f4:	40021000 	.word	0x40021000
 80024f8:	f87fc00c 	.word	0xf87fc00c
 80024fc:	ff00fccc 	.word	0xff00fccc

08002500 <Reset_Handler>:

    .section	.text.Reset_Handler
	.weak	Reset_Handler
	.type	Reset_Handler, %function
Reset_Handler:
  ldr   sp, =_estack    /* Atollic update: set stack pointer */
 8002500:	f8df d034 	ldr.w	sp, [pc, #52]	; 8002538 <LoopForever+0x2>

/* Copy the data segment initializers from flash to SRAM */
  movs	r1, #0
 8002504:	2100      	movs	r1, #0
  b	LoopCopyDataInit
 8002506:	e003      	b.n	8002510 <LoopCopyDataInit>

08002508 <CopyDataInit>:

CopyDataInit:
	ldr	r3, =_sidata
 8002508:	4b0c      	ldr	r3, [pc, #48]	; (800253c <LoopForever+0x6>)
	ldr	r3, [r3, r1]
 800250a:	585b      	ldr	r3, [r3, r1]
	str	r3, [r0, r1]
 800250c:	5043      	str	r3, [r0, r1]
	adds	r1, r1, #4
 800250e:	3104      	adds	r1, #4

08002510 <LoopCopyDataInit>:

LoopCopyDataInit:
	ldr	r0, =_sdata
 8002510:	480b      	ldr	r0, [pc, #44]	; (8002540 <LoopForever+0xa>)
	ldr	r3, =_edata
 8002512:	4b0c      	ldr	r3, [pc, #48]	; (8002544 <LoopForever+0xe>)
	adds	r2, r0, r1
 8002514:	1842      	adds	r2, r0, r1
	cmp	r2, r3
 8002516:	429a      	cmp	r2, r3
	bcc	CopyDataInit
 8002518:	d3f6      	bcc.n	8002508 <CopyDataInit>
	ldr	r2, =_sbss
 800251a:	4a0b      	ldr	r2, [pc, #44]	; (8002548 <LoopForever+0x12>)
	b	LoopFillZerobss
 800251c:	e002      	b.n	8002524 <LoopFillZerobss>

0800251e <FillZerobss>:
/* Zero fill the bss segment. */
FillZerobss:
	movs	r3, #0
 800251e:	2300      	movs	r3, #0
	str	r3, [r2], #4
 8002520:	f842 3b04 	str.w	r3, [r2], #4

08002524 <LoopFillZerobss>:

LoopFillZerobss:
	ldr	r3, = _ebss
 8002524:	4b09      	ldr	r3, [pc, #36]	; (800254c <LoopForever+0x16>)
	cmp	r2, r3
 8002526:	429a      	cmp	r2, r3
	bcc	FillZerobss
 8002528:	d3f9      	bcc.n	800251e <FillZerobss>

/* Call the clock system intitialization function.*/
    bl  SystemInit
 800252a:	f7ff ffb5 	bl	8002498 <SystemInit>
/* Call static constructors */
    bl __libc_init_array
 800252e:	f000 f811 	bl	8002554 <__libc_init_array>
/* Call the application's entry point.*/
	bl	main
 8002532:	f7ff fe97 	bl	8002264 <main>

08002536 <LoopForever>:

LoopForever:
    b LoopForever
 8002536:	e7fe      	b.n	8002536 <LoopForever>
  ldr   sp, =_estack    /* Atollic update: set stack pointer */
 8002538:	20010000 	.word	0x20010000
	ldr	r3, =_sidata
 800253c:	08002ea4 	.word	0x08002ea4
	ldr	r0, =_sdata
 8002540:	20000000 	.word	0x20000000
	ldr	r3, =_edata
 8002544:	20000068 	.word	0x20000068
	ldr	r2, =_sbss
 8002548:	20000068 	.word	0x20000068
	ldr	r3, = _ebss
 800254c:	20000154 	.word	0x20000154

08002550 <ADC1_2_IRQHandler>:
 * @retval : None
*/
    .section	.text.Default_Handler,"ax",%progbits
Default_Handler:
Infinite_Loop:
	b	Infinite_Loop
 8002550:	e7fe      	b.n	8002550 <ADC1_2_IRQHandler>
	...

08002554 <__libc_init_array>:
 8002554:	b570      	push	{r4, r5, r6, lr}
 8002556:	4e0d      	ldr	r6, [pc, #52]	; (800258c <__libc_init_array+0x38>)
 8002558:	4c0d      	ldr	r4, [pc, #52]	; (8002590 <__libc_init_array+0x3c>)
 800255a:	1ba4      	subs	r4, r4, r6
 800255c:	10a4      	asrs	r4, r4, #2
 800255e:	2500      	movs	r5, #0
 8002560:	42a5      	cmp	r5, r4
 8002562:	d109      	bne.n	8002578 <__libc_init_array+0x24>
 8002564:	4e0b      	ldr	r6, [pc, #44]	; (8002594 <__libc_init_array+0x40>)
 8002566:	4c0c      	ldr	r4, [pc, #48]	; (8002598 <__libc_init_array+0x44>)
 8002568:	f000 fc4c 	bl	8002e04 <_init>
 800256c:	1ba4      	subs	r4, r4, r6
 800256e:	10a4      	asrs	r4, r4, #2
 8002570:	2500      	movs	r5, #0
 8002572:	42a5      	cmp	r5, r4
 8002574:	d105      	bne.n	8002582 <__libc_init_array+0x2e>
 8002576:	bd70      	pop	{r4, r5, r6, pc}
 8002578:	f856 3025 	ldr.w	r3, [r6, r5, lsl #2]
 800257c:	4798      	blx	r3
 800257e:	3501      	adds	r5, #1
 8002580:	e7ee      	b.n	8002560 <__libc_init_array+0xc>
 8002582:	f856 3025 	ldr.w	r3, [r6, r5, lsl #2]
 8002586:	4798      	blx	r3
 8002588:	3501      	adds	r5, #1
 800258a:	e7f2      	b.n	8002572 <__libc_init_array+0x1e>
 800258c:	08002e9c 	.word	0x08002e9c
 8002590:	08002e9c 	.word	0x08002e9c
 8002594:	08002e9c 	.word	0x08002e9c
 8002598:	08002ea0 	.word	0x08002ea0

0800259c <memset>:
 800259c:	4402      	add	r2, r0
 800259e:	4603      	mov	r3, r0
 80025a0:	4293      	cmp	r3, r2
 80025a2:	d100      	bne.n	80025a6 <memset+0xa>
 80025a4:	4770      	bx	lr
 80025a6:	f803 1b01 	strb.w	r1, [r3], #1
 80025aa:	e7f9      	b.n	80025a0 <memset+0x4>

080025ac <siprintf>:
 80025ac:	b40e      	push	{r1, r2, r3}
 80025ae:	b500      	push	{lr}
 80025b0:	b09c      	sub	sp, #112	; 0x70
 80025b2:	f44f 7102 	mov.w	r1, #520	; 0x208
 80025b6:	ab1d      	add	r3, sp, #116	; 0x74
 80025b8:	f8ad 1014 	strh.w	r1, [sp, #20]
 80025bc:	9002      	str	r0, [sp, #8]
 80025be:	9006      	str	r0, [sp, #24]
 80025c0:	f06f 4100 	mvn.w	r1, #2147483648	; 0x80000000
 80025c4:	480a      	ldr	r0, [pc, #40]	; (80025f0 <siprintf+0x44>)
 80025c6:	9104      	str	r1, [sp, #16]
 80025c8:	9107      	str	r1, [sp, #28]
 80025ca:	f64f 71ff 	movw	r1, #65535	; 0xffff
 80025ce:	f853 2b04 	ldr.w	r2, [r3], #4
 80025d2:	f8ad 1016 	strh.w	r1, [sp, #22]
 80025d6:	6800      	ldr	r0, [r0, #0]
 80025d8:	9301      	str	r3, [sp, #4]
 80025da:	a902      	add	r1, sp, #8
 80025dc:	f000 f866 	bl	80026ac <_svfiprintf_r>
 80025e0:	9b02      	ldr	r3, [sp, #8]
 80025e2:	2200      	movs	r2, #0
 80025e4:	701a      	strb	r2, [r3, #0]
 80025e6:	b01c      	add	sp, #112	; 0x70
 80025e8:	f85d eb04 	ldr.w	lr, [sp], #4
 80025ec:	b003      	add	sp, #12
 80025ee:	4770      	bx	lr
 80025f0:	20000004 	.word	0x20000004

080025f4 <__ssputs_r>:
 80025f4:	e92d 47f0 	stmdb	sp!, {r4, r5, r6, r7, r8, r9, sl, lr}
 80025f8:	688e      	ldr	r6, [r1, #8]
 80025fa:	429e      	cmp	r6, r3
 80025fc:	4682      	mov	sl, r0
 80025fe:	460c      	mov	r4, r1
 8002600:	4691      	mov	r9, r2
 8002602:	4698      	mov	r8, r3
 8002604:	d835      	bhi.n	8002672 <__ssputs_r+0x7e>
 8002606:	898a      	ldrh	r2, [r1, #12]
 8002608:	f412 6f90 	tst.w	r2, #1152	; 0x480
 800260c:	d031      	beq.n	8002672 <__ssputs_r+0x7e>
 800260e:	6825      	ldr	r5, [r4, #0]
 8002610:	6909      	ldr	r1, [r1, #16]
 8002612:	1a6f      	subs	r7, r5, r1
 8002614:	6965      	ldr	r5, [r4, #20]
 8002616:	2302      	movs	r3, #2
 8002618:	eb05 0545 	add.w	r5, r5, r5, lsl #1
 800261c:	fb95 f5f3 	sdiv	r5, r5, r3
 8002620:	f108 0301 	add.w	r3, r8, #1
 8002624:	443b      	add	r3, r7
 8002626:	429d      	cmp	r5, r3
 8002628:	bf38      	it	cc
 800262a:	461d      	movcc	r5, r3
 800262c:	0553      	lsls	r3, r2, #21
 800262e:	d531      	bpl.n	8002694 <__ssputs_r+0xa0>
 8002630:	4629      	mov	r1, r5
 8002632:	f000 fb39 	bl	8002ca8 <_malloc_r>
 8002636:	4606      	mov	r6, r0
 8002638:	b950      	cbnz	r0, 8002650 <__ssputs_r+0x5c>
 800263a:	230c      	movs	r3, #12
 800263c:	f8ca 3000 	str.w	r3, [sl]
 8002640:	89a3      	ldrh	r3, [r4, #12]
 8002642:	f043 0340 	orr.w	r3, r3, #64	; 0x40
 8002646:	81a3      	strh	r3, [r4, #12]
 8002648:	f04f 30ff 	mov.w	r0, #4294967295
 800264c:	e8bd 87f0 	ldmia.w	sp!, {r4, r5, r6, r7, r8, r9, sl, pc}
 8002650:	463a      	mov	r2, r7
 8002652:	6921      	ldr	r1, [r4, #16]
 8002654:	f000 fab4 	bl	8002bc0 <memcpy>
 8002658:	89a3      	ldrh	r3, [r4, #12]
 800265a:	f423 6390 	bic.w	r3, r3, #1152	; 0x480
 800265e:	f043 0380 	orr.w	r3, r3, #128	; 0x80
 8002662:	81a3      	strh	r3, [r4, #12]
 8002664:	6126      	str	r6, [r4, #16]
 8002666:	6165      	str	r5, [r4, #20]
 8002668:	443e      	add	r6, r7
 800266a:	1bed      	subs	r5, r5, r7
 800266c:	6026      	str	r6, [r4, #0]
 800266e:	60a5      	str	r5, [r4, #8]
 8002670:	4646      	mov	r6, r8
 8002672:	4546      	cmp	r6, r8
 8002674:	bf28      	it	cs
 8002676:	4646      	movcs	r6, r8
 8002678:	4632      	mov	r2, r6
 800267a:	4649      	mov	r1, r9
 800267c:	6820      	ldr	r0, [r4, #0]
 800267e:	f000 faaa 	bl	8002bd6 <memmove>
 8002682:	68a3      	ldr	r3, [r4, #8]
 8002684:	1b9b      	subs	r3, r3, r6
 8002686:	60a3      	str	r3, [r4, #8]
 8002688:	6823      	ldr	r3, [r4, #0]
 800268a:	441e      	add	r6, r3
 800268c:	6026      	str	r6, [r4, #0]
 800268e:	2000      	movs	r0, #0
 8002690:	e8bd 87f0 	ldmia.w	sp!, {r4, r5, r6, r7, r8, r9, sl, pc}
 8002694:	462a      	mov	r2, r5
 8002696:	f000 fb65 	bl	8002d64 <_realloc_r>
 800269a:	4606      	mov	r6, r0
 800269c:	2800      	cmp	r0, #0
 800269e:	d1e1      	bne.n	8002664 <__ssputs_r+0x70>
 80026a0:	6921      	ldr	r1, [r4, #16]
 80026a2:	4650      	mov	r0, sl
 80026a4:	f000 fab2 	bl	8002c0c <_free_r>
 80026a8:	e7c7      	b.n	800263a <__ssputs_r+0x46>
	...

080026ac <_svfiprintf_r>:
 80026ac:	e92d 4ff0 	stmdb	sp!, {r4, r5, r6, r7, r8, r9, sl, fp, lr}
 80026b0:	b09d      	sub	sp, #116	; 0x74
 80026b2:	4680      	mov	r8, r0
 80026b4:	9303      	str	r3, [sp, #12]
 80026b6:	898b      	ldrh	r3, [r1, #12]
 80026b8:	061c      	lsls	r4, r3, #24
 80026ba:	460d      	mov	r5, r1
 80026bc:	4616      	mov	r6, r2
 80026be:	d50f      	bpl.n	80026e0 <_svfiprintf_r+0x34>
 80026c0:	690b      	ldr	r3, [r1, #16]
 80026c2:	b96b      	cbnz	r3, 80026e0 <_svfiprintf_r+0x34>
 80026c4:	2140      	movs	r1, #64	; 0x40
 80026c6:	f000 faef 	bl	8002ca8 <_malloc_r>
 80026ca:	6028      	str	r0, [r5, #0]
 80026cc:	6128      	str	r0, [r5, #16]
 80026ce:	b928      	cbnz	r0, 80026dc <_svfiprintf_r+0x30>
 80026d0:	230c      	movs	r3, #12
 80026d2:	f8c8 3000 	str.w	r3, [r8]
 80026d6:	f04f 30ff 	mov.w	r0, #4294967295
 80026da:	e0c5      	b.n	8002868 <_svfiprintf_r+0x1bc>
 80026dc:	2340      	movs	r3, #64	; 0x40
 80026de:	616b      	str	r3, [r5, #20]
 80026e0:	2300      	movs	r3, #0
 80026e2:	9309      	str	r3, [sp, #36]	; 0x24
 80026e4:	2320      	movs	r3, #32
 80026e6:	f88d 3029 	strb.w	r3, [sp, #41]	; 0x29
 80026ea:	2330      	movs	r3, #48	; 0x30
 80026ec:	f88d 302a 	strb.w	r3, [sp, #42]	; 0x2a
 80026f0:	f04f 0b01 	mov.w	fp, #1
 80026f4:	4637      	mov	r7, r6
 80026f6:	463c      	mov	r4, r7
 80026f8:	f814 3b01 	ldrb.w	r3, [r4], #1
 80026fc:	2b00      	cmp	r3, #0
 80026fe:	d13c      	bne.n	800277a <_svfiprintf_r+0xce>
 8002700:	ebb7 0a06 	subs.w	sl, r7, r6
 8002704:	d00b      	beq.n	800271e <_svfiprintf_r+0x72>
 8002706:	4653      	mov	r3, sl
 8002708:	4632      	mov	r2, r6
 800270a:	4629      	mov	r1, r5
 800270c:	4640      	mov	r0, r8
 800270e:	f7ff ff71 	bl	80025f4 <__ssputs_r>
 8002712:	3001      	adds	r0, #1
 8002714:	f000 80a3 	beq.w	800285e <_svfiprintf_r+0x1b2>
 8002718:	9b09      	ldr	r3, [sp, #36]	; 0x24
 800271a:	4453      	add	r3, sl
 800271c:	9309      	str	r3, [sp, #36]	; 0x24
 800271e:	783b      	ldrb	r3, [r7, #0]
 8002720:	2b00      	cmp	r3, #0
 8002722:	f000 809c 	beq.w	800285e <_svfiprintf_r+0x1b2>
 8002726:	2300      	movs	r3, #0
 8002728:	f04f 32ff 	mov.w	r2, #4294967295
 800272c:	9304      	str	r3, [sp, #16]
 800272e:	9307      	str	r3, [sp, #28]
 8002730:	9205      	str	r2, [sp, #20]
 8002732:	9306      	str	r3, [sp, #24]
 8002734:	f88d 3053 	strb.w	r3, [sp, #83]	; 0x53
 8002738:	931a      	str	r3, [sp, #104]	; 0x68
 800273a:	2205      	movs	r2, #5
 800273c:	7821      	ldrb	r1, [r4, #0]
 800273e:	4850      	ldr	r0, [pc, #320]	; (8002880 <_svfiprintf_r+0x1d4>)
 8002740:	f7fd fd4e 	bl	80001e0 <memchr>
 8002744:	1c67      	adds	r7, r4, #1
 8002746:	9b04      	ldr	r3, [sp, #16]
 8002748:	b9d8      	cbnz	r0, 8002782 <_svfiprintf_r+0xd6>
 800274a:	06d9      	lsls	r1, r3, #27
 800274c:	bf44      	itt	mi
 800274e:	2220      	movmi	r2, #32
 8002750:	f88d 2053 	strbmi.w	r2, [sp, #83]	; 0x53
 8002754:	071a      	lsls	r2, r3, #28
 8002756:	bf44      	itt	mi
 8002758:	222b      	movmi	r2, #43	; 0x2b
 800275a:	f88d 2053 	strbmi.w	r2, [sp, #83]	; 0x53
 800275e:	7822      	ldrb	r2, [r4, #0]
 8002760:	2a2a      	cmp	r2, #42	; 0x2a
 8002762:	d016      	beq.n	8002792 <_svfiprintf_r+0xe6>
 8002764:	9a07      	ldr	r2, [sp, #28]
 8002766:	2100      	movs	r1, #0
 8002768:	200a      	movs	r0, #10
 800276a:	4627      	mov	r7, r4
 800276c:	3401      	adds	r4, #1
 800276e:	783b      	ldrb	r3, [r7, #0]
 8002770:	3b30      	subs	r3, #48	; 0x30
 8002772:	2b09      	cmp	r3, #9
 8002774:	d951      	bls.n	800281a <_svfiprintf_r+0x16e>
 8002776:	b1c9      	cbz	r1, 80027ac <_svfiprintf_r+0x100>
 8002778:	e011      	b.n	800279e <_svfiprintf_r+0xf2>
 800277a:	2b25      	cmp	r3, #37	; 0x25
 800277c:	d0c0      	beq.n	8002700 <_svfiprintf_r+0x54>
 800277e:	4627      	mov	r7, r4
 8002780:	e7b9      	b.n	80026f6 <_svfiprintf_r+0x4a>
 8002782:	4a3f      	ldr	r2, [pc, #252]	; (8002880 <_svfiprintf_r+0x1d4>)
 8002784:	1a80      	subs	r0, r0, r2
 8002786:	fa0b f000 	lsl.w	r0, fp, r0
 800278a:	4318      	orrs	r0, r3
 800278c:	9004      	str	r0, [sp, #16]
 800278e:	463c      	mov	r4, r7
 8002790:	e7d3      	b.n	800273a <_svfiprintf_r+0x8e>
 8002792:	9a03      	ldr	r2, [sp, #12]
 8002794:	1d11      	adds	r1, r2, #4
 8002796:	6812      	ldr	r2, [r2, #0]
 8002798:	9103      	str	r1, [sp, #12]
 800279a:	2a00      	cmp	r2, #0
 800279c:	db01      	blt.n	80027a2 <_svfiprintf_r+0xf6>
 800279e:	9207      	str	r2, [sp, #28]
 80027a0:	e004      	b.n	80027ac <_svfiprintf_r+0x100>
 80027a2:	4252      	negs	r2, r2
 80027a4:	f043 0302 	orr.w	r3, r3, #2
 80027a8:	9207      	str	r2, [sp, #28]
 80027aa:	9304      	str	r3, [sp, #16]
 80027ac:	783b      	ldrb	r3, [r7, #0]
 80027ae:	2b2e      	cmp	r3, #46	; 0x2e
 80027b0:	d10e      	bne.n	80027d0 <_svfiprintf_r+0x124>
 80027b2:	787b      	ldrb	r3, [r7, #1]
 80027b4:	2b2a      	cmp	r3, #42	; 0x2a
 80027b6:	f107 0101 	add.w	r1, r7, #1
 80027ba:	d132      	bne.n	8002822 <_svfiprintf_r+0x176>
 80027bc:	9b03      	ldr	r3, [sp, #12]
 80027be:	1d1a      	adds	r2, r3, #4
 80027c0:	681b      	ldr	r3, [r3, #0]
 80027c2:	9203      	str	r2, [sp, #12]
 80027c4:	2b00      	cmp	r3, #0
 80027c6:	bfb8      	it	lt
 80027c8:	f04f 33ff 	movlt.w	r3, #4294967295
 80027cc:	3702      	adds	r7, #2
 80027ce:	9305      	str	r3, [sp, #20]
 80027d0:	4c2c      	ldr	r4, [pc, #176]	; (8002884 <_svfiprintf_r+0x1d8>)
 80027d2:	7839      	ldrb	r1, [r7, #0]
 80027d4:	2203      	movs	r2, #3
 80027d6:	4620      	mov	r0, r4
 80027d8:	f7fd fd02 	bl	80001e0 <memchr>
 80027dc:	b138      	cbz	r0, 80027ee <_svfiprintf_r+0x142>
 80027de:	2340      	movs	r3, #64	; 0x40
 80027e0:	1b00      	subs	r0, r0, r4
 80027e2:	fa03 f000 	lsl.w	r0, r3, r0
 80027e6:	9b04      	ldr	r3, [sp, #16]
 80027e8:	4303      	orrs	r3, r0
 80027ea:	9304      	str	r3, [sp, #16]
 80027ec:	3701      	adds	r7, #1
 80027ee:	7839      	ldrb	r1, [r7, #0]
 80027f0:	4825      	ldr	r0, [pc, #148]	; (8002888 <_svfiprintf_r+0x1dc>)
 80027f2:	f88d 1028 	strb.w	r1, [sp, #40]	; 0x28
 80027f6:	2206      	movs	r2, #6
 80027f8:	1c7e      	adds	r6, r7, #1
 80027fa:	f7fd fcf1 	bl	80001e0 <memchr>
 80027fe:	2800      	cmp	r0, #0
 8002800:	d035      	beq.n	800286e <_svfiprintf_r+0x1c2>
 8002802:	4b22      	ldr	r3, [pc, #136]	; (800288c <_svfiprintf_r+0x1e0>)
 8002804:	b9fb      	cbnz	r3, 8002846 <_svfiprintf_r+0x19a>
 8002806:	9b03      	ldr	r3, [sp, #12]
 8002808:	3307      	adds	r3, #7
 800280a:	f023 0307 	bic.w	r3, r3, #7
 800280e:	3308      	adds	r3, #8
 8002810:	9303      	str	r3, [sp, #12]
 8002812:	9b09      	ldr	r3, [sp, #36]	; 0x24
 8002814:	444b      	add	r3, r9
 8002816:	9309      	str	r3, [sp, #36]	; 0x24
 8002818:	e76c      	b.n	80026f4 <_svfiprintf_r+0x48>
 800281a:	fb00 3202 	mla	r2, r0, r2, r3
 800281e:	2101      	movs	r1, #1
 8002820:	e7a3      	b.n	800276a <_svfiprintf_r+0xbe>
 8002822:	2300      	movs	r3, #0
 8002824:	9305      	str	r3, [sp, #20]
 8002826:	4618      	mov	r0, r3
 8002828:	240a      	movs	r4, #10
 800282a:	460f      	mov	r7, r1
 800282c:	3101      	adds	r1, #1
 800282e:	783a      	ldrb	r2, [r7, #0]
 8002830:	3a30      	subs	r2, #48	; 0x30
 8002832:	2a09      	cmp	r2, #9
 8002834:	d903      	bls.n	800283e <_svfiprintf_r+0x192>
 8002836:	2b00      	cmp	r3, #0
 8002838:	d0ca      	beq.n	80027d0 <_svfiprintf_r+0x124>
 800283a:	9005      	str	r0, [sp, #20]
 800283c:	e7c8      	b.n	80027d0 <_svfiprintf_r+0x124>
 800283e:	fb04 2000 	mla	r0, r4, r0, r2
 8002842:	2301      	movs	r3, #1
 8002844:	e7f1      	b.n	800282a <_svfiprintf_r+0x17e>
 8002846:	ab03      	add	r3, sp, #12
 8002848:	9300      	str	r3, [sp, #0]
 800284a:	462a      	mov	r2, r5
 800284c:	4b10      	ldr	r3, [pc, #64]	; (8002890 <_svfiprintf_r+0x1e4>)
 800284e:	a904      	add	r1, sp, #16
 8002850:	4640      	mov	r0, r8
 8002852:	f3af 8000 	nop.w
 8002856:	f1b0 3fff 	cmp.w	r0, #4294967295
 800285a:	4681      	mov	r9, r0
 800285c:	d1d9      	bne.n	8002812 <_svfiprintf_r+0x166>
 800285e:	89ab      	ldrh	r3, [r5, #12]
 8002860:	065b      	lsls	r3, r3, #25
 8002862:	f53f af38 	bmi.w	80026d6 <_svfiprintf_r+0x2a>
 8002866:	9809      	ldr	r0, [sp, #36]	; 0x24
 8002868:	b01d      	add	sp, #116	; 0x74
 800286a:	e8bd 8ff0 	ldmia.w	sp!, {r4, r5, r6, r7, r8, r9, sl, fp, pc}
 800286e:	ab03      	add	r3, sp, #12
 8002870:	9300      	str	r3, [sp, #0]
 8002872:	462a      	mov	r2, r5
 8002874:	4b06      	ldr	r3, [pc, #24]	; (8002890 <_svfiprintf_r+0x1e4>)
 8002876:	a904      	add	r1, sp, #16
 8002878:	4640      	mov	r0, r8
 800287a:	f000 f881 	bl	8002980 <_printf_i>
 800287e:	e7ea      	b.n	8002856 <_svfiprintf_r+0x1aa>
 8002880:	08002e67 	.word	0x08002e67
 8002884:	08002e6d 	.word	0x08002e6d
 8002888:	08002e71 	.word	0x08002e71
 800288c:	00000000 	.word	0x00000000
 8002890:	080025f5 	.word	0x080025f5

08002894 <_printf_common>:
 8002894:	e92d 47f0 	stmdb	sp!, {r4, r5, r6, r7, r8, r9, sl, lr}
 8002898:	4691      	mov	r9, r2
 800289a:	461f      	mov	r7, r3
 800289c:	688a      	ldr	r2, [r1, #8]
 800289e:	690b      	ldr	r3, [r1, #16]
 80028a0:	f8dd 8020 	ldr.w	r8, [sp, #32]
 80028a4:	4293      	cmp	r3, r2
 80028a6:	bfb8      	it	lt
 80028a8:	4613      	movlt	r3, r2
 80028aa:	f8c9 3000 	str.w	r3, [r9]
 80028ae:	f891 2043 	ldrb.w	r2, [r1, #67]	; 0x43
 80028b2:	4606      	mov	r6, r0
 80028b4:	460c      	mov	r4, r1
 80028b6:	b112      	cbz	r2, 80028be <_printf_common+0x2a>
 80028b8:	3301      	adds	r3, #1
 80028ba:	f8c9 3000 	str.w	r3, [r9]
 80028be:	6823      	ldr	r3, [r4, #0]
 80028c0:	0699      	lsls	r1, r3, #26
 80028c2:	bf42      	ittt	mi
 80028c4:	f8d9 3000 	ldrmi.w	r3, [r9]
 80028c8:	3302      	addmi	r3, #2
 80028ca:	f8c9 3000 	strmi.w	r3, [r9]
 80028ce:	6825      	ldr	r5, [r4, #0]
 80028d0:	f015 0506 	ands.w	r5, r5, #6
 80028d4:	d107      	bne.n	80028e6 <_printf_common+0x52>
 80028d6:	f104 0a19 	add.w	sl, r4, #25
 80028da:	68e3      	ldr	r3, [r4, #12]
 80028dc:	f8d9 2000 	ldr.w	r2, [r9]
 80028e0:	1a9b      	subs	r3, r3, r2
 80028e2:	429d      	cmp	r5, r3
 80028e4:	db29      	blt.n	800293a <_printf_common+0xa6>
 80028e6:	f894 3043 	ldrb.w	r3, [r4, #67]	; 0x43
 80028ea:	6822      	ldr	r2, [r4, #0]
 80028ec:	3300      	adds	r3, #0
 80028ee:	bf18      	it	ne
 80028f0:	2301      	movne	r3, #1
 80028f2:	0692      	lsls	r2, r2, #26
 80028f4:	d42e      	bmi.n	8002954 <_printf_common+0xc0>
 80028f6:	f104 0243 	add.w	r2, r4, #67	; 0x43
 80028fa:	4639      	mov	r1, r7
 80028fc:	4630      	mov	r0, r6
 80028fe:	47c0      	blx	r8
 8002900:	3001      	adds	r0, #1
 8002902:	d021      	beq.n	8002948 <_printf_common+0xb4>
 8002904:	6823      	ldr	r3, [r4, #0]
 8002906:	68e5      	ldr	r5, [r4, #12]
 8002908:	f8d9 2000 	ldr.w	r2, [r9]
 800290c:	f003 0306 	and.w	r3, r3, #6
 8002910:	2b04      	cmp	r3, #4
 8002912:	bf08      	it	eq
 8002914:	1aad      	subeq	r5, r5, r2
 8002916:	68a3      	ldr	r3, [r4, #8]
 8002918:	6922      	ldr	r2, [r4, #16]
 800291a:	bf0c      	ite	eq
 800291c:	ea25 75e5 	biceq.w	r5, r5, r5, asr #31
 8002920:	2500      	movne	r5, #0
 8002922:	4293      	cmp	r3, r2
 8002924:	bfc4      	itt	gt
 8002926:	1a9b      	subgt	r3, r3, r2
 8002928:	18ed      	addgt	r5, r5, r3
 800292a:	f04f 0900 	mov.w	r9, #0
 800292e:	341a      	adds	r4, #26
 8002930:	454d      	cmp	r5, r9
 8002932:	d11b      	bne.n	800296c <_printf_common+0xd8>
 8002934:	2000      	movs	r0, #0
 8002936:	e8bd 87f0 	ldmia.w	sp!, {r4, r5, r6, r7, r8, r9, sl, pc}
 800293a:	2301      	movs	r3, #1
 800293c:	4652      	mov	r2, sl
 800293e:	4639      	mov	r1, r7
 8002940:	4630      	mov	r0, r6
 8002942:	47c0      	blx	r8
 8002944:	3001      	adds	r0, #1
 8002946:	d103      	bne.n	8002950 <_printf_common+0xbc>
 8002948:	f04f 30ff 	mov.w	r0, #4294967295
 800294c:	e8bd 87f0 	ldmia.w	sp!, {r4, r5, r6, r7, r8, r9, sl, pc}
 8002950:	3501      	adds	r5, #1
 8002952:	e7c2      	b.n	80028da <_printf_common+0x46>
 8002954:	18e1      	adds	r1, r4, r3
 8002956:	1c5a      	adds	r2, r3, #1
 8002958:	2030      	movs	r0, #48	; 0x30
 800295a:	f881 0043 	strb.w	r0, [r1, #67]	; 0x43
 800295e:	4422      	add	r2, r4
 8002960:	f894 1045 	ldrb.w	r1, [r4, #69]	; 0x45
 8002964:	f882 1043 	strb.w	r1, [r2, #67]	; 0x43
 8002968:	3302      	adds	r3, #2
 800296a:	e7c4      	b.n	80028f6 <_printf_common+0x62>
 800296c:	2301      	movs	r3, #1
 800296e:	4622      	mov	r2, r4
 8002970:	4639      	mov	r1, r7
 8002972:	4630      	mov	r0, r6
 8002974:	47c0      	blx	r8
 8002976:	3001      	adds	r0, #1
 8002978:	d0e6      	beq.n	8002948 <_printf_common+0xb4>
 800297a:	f109 0901 	add.w	r9, r9, #1
 800297e:	e7d7      	b.n	8002930 <_printf_common+0x9c>

08002980 <_printf_i>:
 8002980:	e92d 43f0 	stmdb	sp!, {r4, r5, r6, r7, r8, r9, lr}
 8002984:	4617      	mov	r7, r2
 8002986:	7e0a      	ldrb	r2, [r1, #24]
 8002988:	b085      	sub	sp, #20
 800298a:	2a6e      	cmp	r2, #110	; 0x6e
 800298c:	4698      	mov	r8, r3
 800298e:	4606      	mov	r6, r0
 8002990:	460c      	mov	r4, r1
 8002992:	9b0c      	ldr	r3, [sp, #48]	; 0x30
 8002994:	f101 0e43 	add.w	lr, r1, #67	; 0x43
 8002998:	f000 80bc 	beq.w	8002b14 <_printf_i+0x194>
 800299c:	d81a      	bhi.n	80029d4 <_printf_i+0x54>
 800299e:	2a63      	cmp	r2, #99	; 0x63
 80029a0:	d02e      	beq.n	8002a00 <_printf_i+0x80>
 80029a2:	d80a      	bhi.n	80029ba <_printf_i+0x3a>
 80029a4:	2a00      	cmp	r2, #0
 80029a6:	f000 80c8 	beq.w	8002b3a <_printf_i+0x1ba>
 80029aa:	2a58      	cmp	r2, #88	; 0x58
 80029ac:	f000 808a 	beq.w	8002ac4 <_printf_i+0x144>
 80029b0:	f104 0542 	add.w	r5, r4, #66	; 0x42
 80029b4:	f884 2042 	strb.w	r2, [r4, #66]	; 0x42
 80029b8:	e02a      	b.n	8002a10 <_printf_i+0x90>
 80029ba:	2a64      	cmp	r2, #100	; 0x64
 80029bc:	d001      	beq.n	80029c2 <_printf_i+0x42>
 80029be:	2a69      	cmp	r2, #105	; 0x69
 80029c0:	d1f6      	bne.n	80029b0 <_printf_i+0x30>
 80029c2:	6821      	ldr	r1, [r4, #0]
 80029c4:	681a      	ldr	r2, [r3, #0]
 80029c6:	f011 0f80 	tst.w	r1, #128	; 0x80
 80029ca:	d023      	beq.n	8002a14 <_printf_i+0x94>
 80029cc:	1d11      	adds	r1, r2, #4
 80029ce:	6019      	str	r1, [r3, #0]
 80029d0:	6813      	ldr	r3, [r2, #0]
 80029d2:	e027      	b.n	8002a24 <_printf_i+0xa4>
 80029d4:	2a73      	cmp	r2, #115	; 0x73
 80029d6:	f000 80b4 	beq.w	8002b42 <_printf_i+0x1c2>
 80029da:	d808      	bhi.n	80029ee <_printf_i+0x6e>
 80029dc:	2a6f      	cmp	r2, #111	; 0x6f
 80029de:	d02a      	beq.n	8002a36 <_printf_i+0xb6>
 80029e0:	2a70      	cmp	r2, #112	; 0x70
 80029e2:	d1e5      	bne.n	80029b0 <_printf_i+0x30>
 80029e4:	680a      	ldr	r2, [r1, #0]
 80029e6:	f042 0220 	orr.w	r2, r2, #32
 80029ea:	600a      	str	r2, [r1, #0]
 80029ec:	e003      	b.n	80029f6 <_printf_i+0x76>
 80029ee:	2a75      	cmp	r2, #117	; 0x75
 80029f0:	d021      	beq.n	8002a36 <_printf_i+0xb6>
 80029f2:	2a78      	cmp	r2, #120	; 0x78
 80029f4:	d1dc      	bne.n	80029b0 <_printf_i+0x30>
 80029f6:	2278      	movs	r2, #120	; 0x78
 80029f8:	f884 2045 	strb.w	r2, [r4, #69]	; 0x45
 80029fc:	496e      	ldr	r1, [pc, #440]	; (8002bb8 <_printf_i+0x238>)
 80029fe:	e064      	b.n	8002aca <_printf_i+0x14a>
 8002a00:	681a      	ldr	r2, [r3, #0]
 8002a02:	f101 0542 	add.w	r5, r1, #66	; 0x42
 8002a06:	1d11      	adds	r1, r2, #4
 8002a08:	6019      	str	r1, [r3, #0]
 8002a0a:	6813      	ldr	r3, [r2, #0]
 8002a0c:	f884 3042 	strb.w	r3, [r4, #66]	; 0x42
 8002a10:	2301      	movs	r3, #1
 8002a12:	e0a3      	b.n	8002b5c <_printf_i+0x1dc>
 8002a14:	f011 0f40 	tst.w	r1, #64	; 0x40
 8002a18:	f102 0104 	add.w	r1, r2, #4
 8002a1c:	6019      	str	r1, [r3, #0]
 8002a1e:	d0d7      	beq.n	80029d0 <_printf_i+0x50>
 8002a20:	f9b2 3000 	ldrsh.w	r3, [r2]
 8002a24:	2b00      	cmp	r3, #0
 8002a26:	da03      	bge.n	8002a30 <_printf_i+0xb0>
 8002a28:	222d      	movs	r2, #45	; 0x2d
 8002a2a:	425b      	negs	r3, r3
 8002a2c:	f884 2043 	strb.w	r2, [r4, #67]	; 0x43
 8002a30:	4962      	ldr	r1, [pc, #392]	; (8002bbc <_printf_i+0x23c>)
 8002a32:	220a      	movs	r2, #10
 8002a34:	e017      	b.n	8002a66 <_printf_i+0xe6>
 8002a36:	6820      	ldr	r0, [r4, #0]
 8002a38:	6819      	ldr	r1, [r3, #0]
 8002a3a:	f010 0f80 	tst.w	r0, #128	; 0x80
 8002a3e:	d003      	beq.n	8002a48 <_printf_i+0xc8>
 8002a40:	1d08      	adds	r0, r1, #4
 8002a42:	6018      	str	r0, [r3, #0]
 8002a44:	680b      	ldr	r3, [r1, #0]
 8002a46:	e006      	b.n	8002a56 <_printf_i+0xd6>
 8002a48:	f010 0f40 	tst.w	r0, #64	; 0x40
 8002a4c:	f101 0004 	add.w	r0, r1, #4
 8002a50:	6018      	str	r0, [r3, #0]
 8002a52:	d0f7      	beq.n	8002a44 <_printf_i+0xc4>
 8002a54:	880b      	ldrh	r3, [r1, #0]
 8002a56:	4959      	ldr	r1, [pc, #356]	; (8002bbc <_printf_i+0x23c>)
 8002a58:	2a6f      	cmp	r2, #111	; 0x6f
 8002a5a:	bf14      	ite	ne
 8002a5c:	220a      	movne	r2, #10
 8002a5e:	2208      	moveq	r2, #8
 8002a60:	2000      	movs	r0, #0
 8002a62:	f884 0043 	strb.w	r0, [r4, #67]	; 0x43
 8002a66:	6865      	ldr	r5, [r4, #4]
 8002a68:	60a5      	str	r5, [r4, #8]
 8002a6a:	2d00      	cmp	r5, #0
 8002a6c:	f2c0 809c 	blt.w	8002ba8 <_printf_i+0x228>
 8002a70:	6820      	ldr	r0, [r4, #0]
 8002a72:	f020 0004 	bic.w	r0, r0, #4
 8002a76:	6020      	str	r0, [r4, #0]
 8002a78:	2b00      	cmp	r3, #0
 8002a7a:	d13f      	bne.n	8002afc <_printf_i+0x17c>
 8002a7c:	2d00      	cmp	r5, #0
 8002a7e:	f040 8095 	bne.w	8002bac <_printf_i+0x22c>
 8002a82:	4675      	mov	r5, lr
 8002a84:	2a08      	cmp	r2, #8
 8002a86:	d10b      	bne.n	8002aa0 <_printf_i+0x120>
 8002a88:	6823      	ldr	r3, [r4, #0]
 8002a8a:	07da      	lsls	r2, r3, #31
 8002a8c:	d508      	bpl.n	8002aa0 <_printf_i+0x120>
 8002a8e:	6923      	ldr	r3, [r4, #16]
 8002a90:	6862      	ldr	r2, [r4, #4]
 8002a92:	429a      	cmp	r2, r3
 8002a94:	bfde      	ittt	le
 8002a96:	2330      	movle	r3, #48	; 0x30
 8002a98:	f805 3c01 	strble.w	r3, [r5, #-1]
 8002a9c:	f105 35ff 	addle.w	r5, r5, #4294967295
 8002aa0:	ebae 0305 	sub.w	r3, lr, r5
 8002aa4:	6123      	str	r3, [r4, #16]
 8002aa6:	f8cd 8000 	str.w	r8, [sp]
 8002aaa:	463b      	mov	r3, r7
 8002aac:	aa03      	add	r2, sp, #12
 8002aae:	4621      	mov	r1, r4
 8002ab0:	4630      	mov	r0, r6
 8002ab2:	f7ff feef 	bl	8002894 <_printf_common>
 8002ab6:	3001      	adds	r0, #1
 8002ab8:	d155      	bne.n	8002b66 <_printf_i+0x1e6>
 8002aba:	f04f 30ff 	mov.w	r0, #4294967295
 8002abe:	b005      	add	sp, #20
 8002ac0:	e8bd 83f0 	ldmia.w	sp!, {r4, r5, r6, r7, r8, r9, pc}
 8002ac4:	f881 2045 	strb.w	r2, [r1, #69]	; 0x45
 8002ac8:	493c      	ldr	r1, [pc, #240]	; (8002bbc <_printf_i+0x23c>)
 8002aca:	6822      	ldr	r2, [r4, #0]
 8002acc:	6818      	ldr	r0, [r3, #0]
 8002ace:	f012 0f80 	tst.w	r2, #128	; 0x80
 8002ad2:	f100 0504 	add.w	r5, r0, #4
 8002ad6:	601d      	str	r5, [r3, #0]
 8002ad8:	d001      	beq.n	8002ade <_printf_i+0x15e>
 8002ada:	6803      	ldr	r3, [r0, #0]
 8002adc:	e002      	b.n	8002ae4 <_printf_i+0x164>
 8002ade:	0655      	lsls	r5, r2, #25
 8002ae0:	d5fb      	bpl.n	8002ada <_printf_i+0x15a>
 8002ae2:	8803      	ldrh	r3, [r0, #0]
 8002ae4:	07d0      	lsls	r0, r2, #31
 8002ae6:	bf44      	itt	mi
 8002ae8:	f042 0220 	orrmi.w	r2, r2, #32
 8002aec:	6022      	strmi	r2, [r4, #0]
 8002aee:	b91b      	cbnz	r3, 8002af8 <_printf_i+0x178>
 8002af0:	6822      	ldr	r2, [r4, #0]
 8002af2:	f022 0220 	bic.w	r2, r2, #32
 8002af6:	6022      	str	r2, [r4, #0]
 8002af8:	2210      	movs	r2, #16
 8002afa:	e7b1      	b.n	8002a60 <_printf_i+0xe0>
 8002afc:	4675      	mov	r5, lr
 8002afe:	fbb3 f0f2 	udiv	r0, r3, r2
 8002b02:	fb02 3310 	mls	r3, r2, r0, r3
 8002b06:	5ccb      	ldrb	r3, [r1, r3]
 8002b08:	f805 3d01 	strb.w	r3, [r5, #-1]!
 8002b0c:	4603      	mov	r3, r0
 8002b0e:	2800      	cmp	r0, #0
 8002b10:	d1f5      	bne.n	8002afe <_printf_i+0x17e>
 8002b12:	e7b7      	b.n	8002a84 <_printf_i+0x104>
 8002b14:	6808      	ldr	r0, [r1, #0]
 8002b16:	681a      	ldr	r2, [r3, #0]
 8002b18:	6949      	ldr	r1, [r1, #20]
 8002b1a:	f010 0f80 	tst.w	r0, #128	; 0x80
 8002b1e:	d004      	beq.n	8002b2a <_printf_i+0x1aa>
 8002b20:	1d10      	adds	r0, r2, #4
 8002b22:	6018      	str	r0, [r3, #0]
 8002b24:	6813      	ldr	r3, [r2, #0]
 8002b26:	6019      	str	r1, [r3, #0]
 8002b28:	e007      	b.n	8002b3a <_printf_i+0x1ba>
 8002b2a:	f010 0f40 	tst.w	r0, #64	; 0x40
 8002b2e:	f102 0004 	add.w	r0, r2, #4
 8002b32:	6018      	str	r0, [r3, #0]
 8002b34:	6813      	ldr	r3, [r2, #0]
 8002b36:	d0f6      	beq.n	8002b26 <_printf_i+0x1a6>
 8002b38:	8019      	strh	r1, [r3, #0]
 8002b3a:	2300      	movs	r3, #0
 8002b3c:	6123      	str	r3, [r4, #16]
 8002b3e:	4675      	mov	r5, lr
 8002b40:	e7b1      	b.n	8002aa6 <_printf_i+0x126>
 8002b42:	681a      	ldr	r2, [r3, #0]
 8002b44:	1d11      	adds	r1, r2, #4
 8002b46:	6019      	str	r1, [r3, #0]
 8002b48:	6815      	ldr	r5, [r2, #0]
 8002b4a:	6862      	ldr	r2, [r4, #4]
 8002b4c:	2100      	movs	r1, #0
 8002b4e:	4628      	mov	r0, r5
 8002b50:	f7fd fb46 	bl	80001e0 <memchr>
 8002b54:	b108      	cbz	r0, 8002b5a <_printf_i+0x1da>
 8002b56:	1b40      	subs	r0, r0, r5
 8002b58:	6060      	str	r0, [r4, #4]
 8002b5a:	6863      	ldr	r3, [r4, #4]
 8002b5c:	6123      	str	r3, [r4, #16]
 8002b5e:	2300      	movs	r3, #0
 8002b60:	f884 3043 	strb.w	r3, [r4, #67]	; 0x43
 8002b64:	e79f      	b.n	8002aa6 <_printf_i+0x126>
 8002b66:	6923      	ldr	r3, [r4, #16]
 8002b68:	462a      	mov	r2, r5
 8002b6a:	4639      	mov	r1, r7
 8002b6c:	4630      	mov	r0, r6
 8002b6e:	47c0      	blx	r8
 8002b70:	3001      	adds	r0, #1
 8002b72:	d0a2      	beq.n	8002aba <_printf_i+0x13a>
 8002b74:	6823      	ldr	r3, [r4, #0]
 8002b76:	079b      	lsls	r3, r3, #30
 8002b78:	d507      	bpl.n	8002b8a <_printf_i+0x20a>
 8002b7a:	2500      	movs	r5, #0
 8002b7c:	f104 0919 	add.w	r9, r4, #25
 8002b80:	68e3      	ldr	r3, [r4, #12]
 8002b82:	9a03      	ldr	r2, [sp, #12]
 8002b84:	1a9b      	subs	r3, r3, r2
 8002b86:	429d      	cmp	r5, r3
 8002b88:	db05      	blt.n	8002b96 <_printf_i+0x216>
 8002b8a:	68e0      	ldr	r0, [r4, #12]
 8002b8c:	9b03      	ldr	r3, [sp, #12]
 8002b8e:	4298      	cmp	r0, r3
 8002b90:	bfb8      	it	lt
 8002b92:	4618      	movlt	r0, r3
 8002b94:	e793      	b.n	8002abe <_printf_i+0x13e>
 8002b96:	2301      	movs	r3, #1
 8002b98:	464a      	mov	r2, r9
 8002b9a:	4639      	mov	r1, r7
 8002b9c:	4630      	mov	r0, r6
 8002b9e:	47c0      	blx	r8
 8002ba0:	3001      	adds	r0, #1
 8002ba2:	d08a      	beq.n	8002aba <_printf_i+0x13a>
 8002ba4:	3501      	adds	r5, #1
 8002ba6:	e7eb      	b.n	8002b80 <_printf_i+0x200>
 8002ba8:	2b00      	cmp	r3, #0
 8002baa:	d1a7      	bne.n	8002afc <_printf_i+0x17c>
 8002bac:	780b      	ldrb	r3, [r1, #0]
 8002bae:	f884 3042 	strb.w	r3, [r4, #66]	; 0x42
 8002bb2:	f104 0542 	add.w	r5, r4, #66	; 0x42
 8002bb6:	e765      	b.n	8002a84 <_printf_i+0x104>
 8002bb8:	08002e89 	.word	0x08002e89
 8002bbc:	08002e78 	.word	0x08002e78

08002bc0 <memcpy>:
 8002bc0:	b510      	push	{r4, lr}
 8002bc2:	1e43      	subs	r3, r0, #1
 8002bc4:	440a      	add	r2, r1
 8002bc6:	4291      	cmp	r1, r2
 8002bc8:	d100      	bne.n	8002bcc <memcpy+0xc>
 8002bca:	bd10      	pop	{r4, pc}
 8002bcc:	f811 4b01 	ldrb.w	r4, [r1], #1
 8002bd0:	f803 4f01 	strb.w	r4, [r3, #1]!
 8002bd4:	e7f7      	b.n	8002bc6 <memcpy+0x6>

08002bd6 <memmove>:
 8002bd6:	4288      	cmp	r0, r1
 8002bd8:	b510      	push	{r4, lr}
 8002bda:	eb01 0302 	add.w	r3, r1, r2
 8002bde:	d803      	bhi.n	8002be8 <memmove+0x12>
 8002be0:	1e42      	subs	r2, r0, #1
 8002be2:	4299      	cmp	r1, r3
 8002be4:	d10c      	bne.n	8002c00 <memmove+0x2a>
 8002be6:	bd10      	pop	{r4, pc}
 8002be8:	4298      	cmp	r0, r3
 8002bea:	d2f9      	bcs.n	8002be0 <memmove+0xa>
 8002bec:	1881      	adds	r1, r0, r2
 8002bee:	1ad2      	subs	r2, r2, r3
 8002bf0:	42d3      	cmn	r3, r2
 8002bf2:	d100      	bne.n	8002bf6 <memmove+0x20>
 8002bf4:	bd10      	pop	{r4, pc}
 8002bf6:	f813 4d01 	ldrb.w	r4, [r3, #-1]!
 8002bfa:	f801 4d01 	strb.w	r4, [r1, #-1]!
 8002bfe:	e7f7      	b.n	8002bf0 <memmove+0x1a>
 8002c00:	f811 4b01 	ldrb.w	r4, [r1], #1
 8002c04:	f802 4f01 	strb.w	r4, [r2, #1]!
 8002c08:	e7eb      	b.n	8002be2 <memmove+0xc>
	...

08002c0c <_free_r>:
 8002c0c:	b538      	push	{r3, r4, r5, lr}
 8002c0e:	4605      	mov	r5, r0
 8002c10:	2900      	cmp	r1, #0
 8002c12:	d045      	beq.n	8002ca0 <_free_r+0x94>
 8002c14:	f851 3c04 	ldr.w	r3, [r1, #-4]
 8002c18:	1f0c      	subs	r4, r1, #4
 8002c1a:	2b00      	cmp	r3, #0
 8002c1c:	bfb8      	it	lt
 8002c1e:	18e4      	addlt	r4, r4, r3
 8002c20:	f000 f8d6 	bl	8002dd0 <__malloc_lock>
 8002c24:	4a1f      	ldr	r2, [pc, #124]	; (8002ca4 <_free_r+0x98>)
 8002c26:	6813      	ldr	r3, [r2, #0]
 8002c28:	4610      	mov	r0, r2
 8002c2a:	b933      	cbnz	r3, 8002c3a <_free_r+0x2e>
 8002c2c:	6063      	str	r3, [r4, #4]
 8002c2e:	6014      	str	r4, [r2, #0]
 8002c30:	4628      	mov	r0, r5
 8002c32:	e8bd 4038 	ldmia.w	sp!, {r3, r4, r5, lr}
 8002c36:	f000 b8cc 	b.w	8002dd2 <__malloc_unlock>
 8002c3a:	42a3      	cmp	r3, r4
 8002c3c:	d90c      	bls.n	8002c58 <_free_r+0x4c>
 8002c3e:	6821      	ldr	r1, [r4, #0]
 8002c40:	1862      	adds	r2, r4, r1
 8002c42:	4293      	cmp	r3, r2
 8002c44:	bf04      	itt	eq
 8002c46:	681a      	ldreq	r2, [r3, #0]
 8002c48:	685b      	ldreq	r3, [r3, #4]
 8002c4a:	6063      	str	r3, [r4, #4]
 8002c4c:	bf04      	itt	eq
 8002c4e:	1852      	addeq	r2, r2, r1
 8002c50:	6022      	streq	r2, [r4, #0]
 8002c52:	6004      	str	r4, [r0, #0]
 8002c54:	e7ec      	b.n	8002c30 <_free_r+0x24>
 8002c56:	4613      	mov	r3, r2
 8002c58:	685a      	ldr	r2, [r3, #4]
 8002c5a:	b10a      	cbz	r2, 8002c60 <_free_r+0x54>
 8002c5c:	42a2      	cmp	r2, r4
 8002c5e:	d9fa      	bls.n	8002c56 <_free_r+0x4a>
 8002c60:	6819      	ldr	r1, [r3, #0]
 8002c62:	1858      	adds	r0, r3, r1
 8002c64:	42a0      	cmp	r0, r4
 8002c66:	d10b      	bne.n	8002c80 <_free_r+0x74>
 8002c68:	6820      	ldr	r0, [r4, #0]
 8002c6a:	4401      	add	r1, r0
 8002c6c:	1858      	adds	r0, r3, r1
 8002c6e:	4282      	cmp	r2, r0
 8002c70:	6019      	str	r1, [r3, #0]
 8002c72:	d1dd      	bne.n	8002c30 <_free_r+0x24>
 8002c74:	6810      	ldr	r0, [r2, #0]
 8002c76:	6852      	ldr	r2, [r2, #4]
 8002c78:	605a      	str	r2, [r3, #4]
 8002c7a:	4401      	add	r1, r0
 8002c7c:	6019      	str	r1, [r3, #0]
 8002c7e:	e7d7      	b.n	8002c30 <_free_r+0x24>
 8002c80:	d902      	bls.n	8002c88 <_free_r+0x7c>
 8002c82:	230c      	movs	r3, #12
 8002c84:	602b      	str	r3, [r5, #0]
 8002c86:	e7d3      	b.n	8002c30 <_free_r+0x24>
 8002c88:	6820      	ldr	r0, [r4, #0]
 8002c8a:	1821      	adds	r1, r4, r0
 8002c8c:	428a      	cmp	r2, r1
 8002c8e:	bf04      	itt	eq
 8002c90:	6811      	ldreq	r1, [r2, #0]
 8002c92:	6852      	ldreq	r2, [r2, #4]
 8002c94:	6062      	str	r2, [r4, #4]
 8002c96:	bf04      	itt	eq
 8002c98:	1809      	addeq	r1, r1, r0
 8002c9a:	6021      	streq	r1, [r4, #0]
 8002c9c:	605c      	str	r4, [r3, #4]
 8002c9e:	e7c7      	b.n	8002c30 <_free_r+0x24>
 8002ca0:	bd38      	pop	{r3, r4, r5, pc}
 8002ca2:	bf00      	nop
 8002ca4:	20000090 	.word	0x20000090

08002ca8 <_malloc_r>:
 8002ca8:	b570      	push	{r4, r5, r6, lr}
 8002caa:	1ccd      	adds	r5, r1, #3
 8002cac:	f025 0503 	bic.w	r5, r5, #3
 8002cb0:	3508      	adds	r5, #8
 8002cb2:	2d0c      	cmp	r5, #12
 8002cb4:	bf38      	it	cc
 8002cb6:	250c      	movcc	r5, #12
 8002cb8:	2d00      	cmp	r5, #0
 8002cba:	4606      	mov	r6, r0
 8002cbc:	db01      	blt.n	8002cc2 <_malloc_r+0x1a>
 8002cbe:	42a9      	cmp	r1, r5
 8002cc0:	d903      	bls.n	8002cca <_malloc_r+0x22>
 8002cc2:	230c      	movs	r3, #12
 8002cc4:	6033      	str	r3, [r6, #0]
 8002cc6:	2000      	movs	r0, #0
 8002cc8:	bd70      	pop	{r4, r5, r6, pc}
 8002cca:	f000 f881 	bl	8002dd0 <__malloc_lock>
 8002cce:	4a23      	ldr	r2, [pc, #140]	; (8002d5c <_malloc_r+0xb4>)
 8002cd0:	6814      	ldr	r4, [r2, #0]
 8002cd2:	4621      	mov	r1, r4
 8002cd4:	b991      	cbnz	r1, 8002cfc <_malloc_r+0x54>
 8002cd6:	4c22      	ldr	r4, [pc, #136]	; (8002d60 <_malloc_r+0xb8>)
 8002cd8:	6823      	ldr	r3, [r4, #0]
 8002cda:	b91b      	cbnz	r3, 8002ce4 <_malloc_r+0x3c>
 8002cdc:	4630      	mov	r0, r6
 8002cde:	f000 f867 	bl	8002db0 <_sbrk_r>
 8002ce2:	6020      	str	r0, [r4, #0]
 8002ce4:	4629      	mov	r1, r5
 8002ce6:	4630      	mov	r0, r6
 8002ce8:	f000 f862 	bl	8002db0 <_sbrk_r>
 8002cec:	1c43      	adds	r3, r0, #1
 8002cee:	d126      	bne.n	8002d3e <_malloc_r+0x96>
 8002cf0:	230c      	movs	r3, #12
 8002cf2:	6033      	str	r3, [r6, #0]
 8002cf4:	4630      	mov	r0, r6
 8002cf6:	f000 f86c 	bl	8002dd2 <__malloc_unlock>
 8002cfa:	e7e4      	b.n	8002cc6 <_malloc_r+0x1e>
 8002cfc:	680b      	ldr	r3, [r1, #0]
 8002cfe:	1b5b      	subs	r3, r3, r5
 8002d00:	d41a      	bmi.n	8002d38 <_malloc_r+0x90>
 8002d02:	2b0b      	cmp	r3, #11
 8002d04:	d90f      	bls.n	8002d26 <_malloc_r+0x7e>
 8002d06:	600b      	str	r3, [r1, #0]
 8002d08:	50cd      	str	r5, [r1, r3]
 8002d0a:	18cc      	adds	r4, r1, r3
 8002d0c:	4630      	mov	r0, r6
 8002d0e:	f000 f860 	bl	8002dd2 <__malloc_unlock>
 8002d12:	f104 000b 	add.w	r0, r4, #11
 8002d16:	1d23      	adds	r3, r4, #4
 8002d18:	f020 0007 	bic.w	r0, r0, #7
 8002d1c:	1ac3      	subs	r3, r0, r3
 8002d1e:	d01b      	beq.n	8002d58 <_malloc_r+0xb0>
 8002d20:	425a      	negs	r2, r3
 8002d22:	50e2      	str	r2, [r4, r3]
 8002d24:	bd70      	pop	{r4, r5, r6, pc}
 8002d26:	428c      	cmp	r4, r1
 8002d28:	bf0d      	iteet	eq
 8002d2a:	6863      	ldreq	r3, [r4, #4]
 8002d2c:	684b      	ldrne	r3, [r1, #4]
 8002d2e:	6063      	strne	r3, [r4, #4]
 8002d30:	6013      	streq	r3, [r2, #0]
 8002d32:	bf18      	it	ne
 8002d34:	460c      	movne	r4, r1
 8002d36:	e7e9      	b.n	8002d0c <_malloc_r+0x64>
 8002d38:	460c      	mov	r4, r1
 8002d3a:	6849      	ldr	r1, [r1, #4]
 8002d3c:	e7ca      	b.n	8002cd4 <_malloc_r+0x2c>
 8002d3e:	1cc4      	adds	r4, r0, #3
 8002d40:	f024 0403 	bic.w	r4, r4, #3
 8002d44:	42a0      	cmp	r0, r4
 8002d46:	d005      	beq.n	8002d54 <_malloc_r+0xac>
 8002d48:	1a21      	subs	r1, r4, r0
 8002d4a:	4630      	mov	r0, r6
 8002d4c:	f000 f830 	bl	8002db0 <_sbrk_r>
 8002d50:	3001      	adds	r0, #1
 8002d52:	d0cd      	beq.n	8002cf0 <_malloc_r+0x48>
 8002d54:	6025      	str	r5, [r4, #0]
 8002d56:	e7d9      	b.n	8002d0c <_malloc_r+0x64>
 8002d58:	bd70      	pop	{r4, r5, r6, pc}
 8002d5a:	bf00      	nop
 8002d5c:	20000090 	.word	0x20000090
 8002d60:	20000094 	.word	0x20000094

08002d64 <_realloc_r>:
 8002d64:	b5f8      	push	{r3, r4, r5, r6, r7, lr}
 8002d66:	4607      	mov	r7, r0
 8002d68:	4614      	mov	r4, r2
 8002d6a:	460e      	mov	r6, r1
 8002d6c:	b921      	cbnz	r1, 8002d78 <_realloc_r+0x14>
 8002d6e:	4611      	mov	r1, r2
 8002d70:	e8bd 40f8 	ldmia.w	sp!, {r3, r4, r5, r6, r7, lr}
 8002d74:	f7ff bf98 	b.w	8002ca8 <_malloc_r>
 8002d78:	b922      	cbnz	r2, 8002d84 <_realloc_r+0x20>
 8002d7a:	f7ff ff47 	bl	8002c0c <_free_r>
 8002d7e:	4625      	mov	r5, r4
 8002d80:	4628      	mov	r0, r5
 8002d82:	bdf8      	pop	{r3, r4, r5, r6, r7, pc}
 8002d84:	f000 f826 	bl	8002dd4 <_malloc_usable_size_r>
 8002d88:	4284      	cmp	r4, r0
 8002d8a:	d90f      	bls.n	8002dac <_realloc_r+0x48>
 8002d8c:	4621      	mov	r1, r4
 8002d8e:	4638      	mov	r0, r7
 8002d90:	f7ff ff8a 	bl	8002ca8 <_malloc_r>
 8002d94:	4605      	mov	r5, r0
 8002d96:	2800      	cmp	r0, #0
 8002d98:	d0f2      	beq.n	8002d80 <_realloc_r+0x1c>
 8002d9a:	4631      	mov	r1, r6
 8002d9c:	4622      	mov	r2, r4
 8002d9e:	f7ff ff0f 	bl	8002bc0 <memcpy>
 8002da2:	4631      	mov	r1, r6
 8002da4:	4638      	mov	r0, r7
 8002da6:	f7ff ff31 	bl	8002c0c <_free_r>
 8002daa:	e7e9      	b.n	8002d80 <_realloc_r+0x1c>
 8002dac:	4635      	mov	r5, r6
 8002dae:	e7e7      	b.n	8002d80 <_realloc_r+0x1c>

08002db0 <_sbrk_r>:
 8002db0:	b538      	push	{r3, r4, r5, lr}
 8002db2:	4c06      	ldr	r4, [pc, #24]	; (8002dcc <_sbrk_r+0x1c>)
 8002db4:	2300      	movs	r3, #0
 8002db6:	4605      	mov	r5, r0
 8002db8:	4608      	mov	r0, r1
 8002dba:	6023      	str	r3, [r4, #0]
 8002dbc:	f000 f814 	bl	8002de8 <_sbrk>
 8002dc0:	1c43      	adds	r3, r0, #1
 8002dc2:	d102      	bne.n	8002dca <_sbrk_r+0x1a>
 8002dc4:	6823      	ldr	r3, [r4, #0]
 8002dc6:	b103      	cbz	r3, 8002dca <_sbrk_r+0x1a>
 8002dc8:	602b      	str	r3, [r5, #0]
 8002dca:	bd38      	pop	{r3, r4, r5, pc}
 8002dcc:	20000150 	.word	0x20000150

08002dd0 <__malloc_lock>:
 8002dd0:	4770      	bx	lr

08002dd2 <__malloc_unlock>:
 8002dd2:	4770      	bx	lr

08002dd4 <_malloc_usable_size_r>:
 8002dd4:	f851 0c04 	ldr.w	r0, [r1, #-4]
 8002dd8:	2800      	cmp	r0, #0
 8002dda:	f1a0 0004 	sub.w	r0, r0, #4
 8002dde:	bfbc      	itt	lt
 8002de0:	580b      	ldrlt	r3, [r1, r0]
 8002de2:	18c0      	addlt	r0, r0, r3
 8002de4:	4770      	bx	lr
	...

08002de8 <_sbrk>:
 8002de8:	4b04      	ldr	r3, [pc, #16]	; (8002dfc <_sbrk+0x14>)
 8002dea:	6819      	ldr	r1, [r3, #0]
 8002dec:	4602      	mov	r2, r0
 8002dee:	b909      	cbnz	r1, 8002df4 <_sbrk+0xc>
 8002df0:	4903      	ldr	r1, [pc, #12]	; (8002e00 <_sbrk+0x18>)
 8002df2:	6019      	str	r1, [r3, #0]
 8002df4:	6818      	ldr	r0, [r3, #0]
 8002df6:	4402      	add	r2, r0
 8002df8:	601a      	str	r2, [r3, #0]
 8002dfa:	4770      	bx	lr
 8002dfc:	20000098 	.word	0x20000098
 8002e00:	20000154 	.word	0x20000154

08002e04 <_init>:
 8002e04:	b5f8      	push	{r3, r4, r5, r6, r7, lr}
 8002e06:	bf00      	nop
 8002e08:	bcf8      	pop	{r3, r4, r5, r6, r7}
 8002e0a:	bc08      	pop	{r3}
 8002e0c:	469e      	mov	lr, r3
 8002e0e:	4770      	bx	lr

08002e10 <_fini>:
 8002e10:	b5f8      	push	{r3, r4, r5, r6, r7, lr}
 8002e12:	bf00      	nop
 8002e14:	bcf8      	pop	{r3, r4, r5, r6, r7}
 8002e16:	bc08      	pop	{r3}
 8002e18:	469e      	mov	lr, r3
 8002e1a:	4770      	bx	lr
